(dp0
VnorR
p1
(dp2
Vb2711
p3
I1
sVb2710
p4
I1
sVb2709
p5
I1
ssVenvY
p6
(dp7
Vb2215
p8
I1
sVb0929
p9
I1
ssVevgA
p10
(dp11
Vb1499
p12
I1
sVb2367
p13
I1
sVb2085
p14
I1
sVb3513
p15
I1
sVb2368
p16
I1
sVb2369
p17
I1
sVb1501
p18
I1
sVb1500
p19
I1
sVb2470
p20
I1
sVb3512
p21
I1
sVb2370
p22
I1
sVb3514
p23
I1
sVb2375
p24
I1
sVb2374
p25
I1
ssVrhaS
p26
(dp27
Vb3903
p28
I1
sVb3902
p29
I1
sVb3907
p30
I1
sVb3906
p31
I1
sVb3905
p32
I1
sVb3904
p33
I1
ssVdicA
p34
(dp35
Vb1575
p36
I1
sVb1576
p37
I1
ssVenvR
p38
(dp39
Vb0463
p40
I1
sVb0462
p41
I1
ssVrob
p42
(dp43
Vb0578
p44
I1
sVb1611
p45
I1
sVb3800
p46
I1
sVb3908
p47
I1
sVb1530
p48
I1
sVb1531
p49
I1
sVb1532
p50
I1
sVb2237
p51
I1
sVb2159
p52
I1
sVb1276
p53
I1
sVb0463
p54
I1
sVb0462
p55
I1
sVb0819
p56
I1
sVb4439
p57
I1
sVb0850
p58
I1
sVb0851
p59
I1
sVb0852
p60
I1
sVb0853
p61
I1
sVb3037
p62
I1
sVb3036
p63
I1
sVb3035
p64
I1
sVb3038
p65
I1
sVb1852
p66
I1
sVb2558
p67
I1
ssVttdR
p68
(dp69
Vb3061
p70
I1
sVb3062
p71
I1
sVb3063
p72
I1
ssVdhaR
p73
(dp74
Vb1200
p75
I1
sVb1199
p76
I1
sVb1201
p77
I1
sVb1198
p78
I1
ssVydeO
p79
(dp80
Vb3512
p81
I1
sVb3513
p82
I1
sVb3514
p83
I1
sVb1500
p84
I1
sVb1499
p85
I1
ssVprpR
p86
(dp87
Vb0335
p88
I1
sVb0334
p89
I1
sVb0331
p90
I1
sVb0330
p91
I1
sVb0333
p92
I1
ssVgutM
p93
(dp94
Vb2706
p95
I1
sVb2707
p96
I1
sVb2704
p97
I1
sVb2705
p98
I1
sVb2702
p99
I1
sVb2703
p100
I1
sVb2708
p101
I1
ssVtorR
p102
(dp103
Vb3709
p104
I1
sVb0998
p105
I1
sVb0995
p106
I1
sVb3707
p107
I1
sVb0996
p108
I1
sVb3509
p109
I1
sVb3508
p110
I1
sVb3510
p111
I1
sVb3708
p112
I1
sVb0997
p113
I1
sVb3516
p114
I1
sVb3517
p115
I1
ssVcreB
p116
(dp117
Vb4400
p118
I1
ssVfis
p119
(dp120
Vb3357
p121
I1
sVb3980
p122
I1
sVb3588
p123
I1
sVb1739
p124
I1
sVb4381
p125
I1
sVb4382
p126
I1
sVb2590
p127
I1
sVb4384
p128
I1
sVb3868
p129
I1
sVb4072
p130
I1
sVb4073
p131
I1
sVb4070
p132
I1
sVb4071
p133
I1
sVb4076
p134
I1
sVb1531
p135
I1
sVb4074
p136
I1
sVb4075
p137
I1
sVb4008
p138
I1
sVb0809
p139
I1
sVb1274
p140
I1
sVb2957
p141
I1
sVb2234
p142
I1
sVb1237
p143
I1
sVb3798
p144
I1
sVb1231
p145
I1
sVb1230
p146
I1
sVb3367
p147
I1
sVb3366
p148
I1
sVb3365
p149
I1
sVb3599
p150
I1
sVb3368
p151
I1
sVb3855
p152
I1
sVb3854
p153
I1
sVb3851
p154
I1
sVb2589
p155
I1
sVb3853
p156
I1
sVb1421
p157
I1
sVb3699
p158
I1
sVb4376
p159
I1
sVb4370
p160
I1
sVb2189
p161
I1
sVb0812
p162
I1
sVb2591
p163
I1
sVb1223
p164
I1
sVb0894
p165
I1
sVb1225
p166
I1
sVb0896
p167
I1
sVb1227
p168
I1
sVb1229
p169
I1
sVb0945
p170
I1
sVb3275
p171
I1
sVb3274
p172
I1
sVb3277
p173
I1
sVb0668
p174
I1
sVb3569
p175
I1
sVb3568
p176
I1
sVb3273
p177
I1
sVb3272
p178
I1
sVb1493
p179
I1
sVb1492
p180
I1
sVb3567
p181
I1
sVb3566
p182
I1
sVb3278
p183
I1
sVb0665
p184
I1
sVb0664
p185
I1
sVb3846
p186
I1
sVb1732
p187
I1
sVb3845
p188
I1
sVb4368
p189
I1
sVb4369
p190
I1
sVb4111
p191
I1
sVb3965
p192
I1
sVb2864
p193
I1
sVb0977
p194
I1
sVb0976
p195
I1
sVb0975
p196
I1
sVb0974
p197
I1
sVb2276
p198
I1
sVb3164
p199
I1
sVb3167
p200
I1
sVb3166
p201
I1
sVb3169
p202
I1
sVb3168
p203
I1
sVb2278
p204
I1
sVb2279
p205
I1
sVb0244
p206
I1
sVb2507
p207
I1
sVb3756
p208
I1
sVb3757
p209
I1
sVb1224
p210
I1
sVb3758
p211
I1
sVb3759
p212
I1
sVb2508
p213
I1
sVb3516
p214
I1
sVb3517
p215
I1
sVb1566
p216
I1
sVb1226
p217
I1
sVb0201
p218
I1
sVb3261
p219
I1
sVb2404
p220
I1
sVb4219
p221
I1
sVb2401
p222
I1
sVb2400
p223
I1
sVb2403
p224
I1
sVb2396
p225
I1
sVb3978
p226
I1
sVb3870
p227
I1
sVb2397
p228
I1
sVb3970
p229
I1
sVb3971
p230
I1
sVb3976
p231
I1
sVb3977
p232
I1
sVb3170
p233
I1
sVb3171
p234
I1
sVb4068
p235
I1
sVb2243
p236
I1
sVb2242
p237
I1
sVb2241
p238
I1
sVb2240
p239
I1
sVb3979
p240
I1
sVb3600
p241
I1
sVb3601
p242
I1
sVb3073
p243
I1
sVb1796
p244
I1
sVb1797
p245
I1
sVb3230
p246
I1
sVb4134
p247
I1
sVb2148
p248
I1
sVb2149
p249
I1
sVb3545
p250
I1
sVb0205
p251
I1
sVb0204
p252
I1
sVb4034
p253
I1
sVb3276
p254
I1
sVb4032
p255
I1
sVb3869
p256
I1
sVb0203
p257
I1
sVb0202
p258
I1
sVb2967
p259
I1
sVb0049
p260
I1
sVb1241
p261
I1
sVb3723
p262
I1
sVb1480
p263
I1
sVb0672
p264
I1
sVb0673
p265
I1
sVb0670
p266
I1
sVb4122
p267
I1
sVb4033
p268
I1
sVb0118
p269
I1
sVb0440
p270
I1
sVb0666
p271
I1
sVb0216
p272
I1
sVb3797
p273
I1
sVb4000
p274
I1
sVb4007
p275
I1
sVb2348
p276
I1
sVb1182
p277
I1
sVb0050
p278
I1
sVb0051
p279
I1
sVb0052
p280
I1
sVb3799
p281
I1
sVb2980
p282
I1
sVb3260
p283
I1
sVb3968
p284
I1
sVb2402
p285
I1
sVb0903
p286
I1
sVb2782
p287
I1
sVb2783
p288
I1
sVb2781
p289
I1
sVb2283
p290
I1
sVb2282
p291
I1
sVb2281
p292
I1
sVb2280
p293
I1
sVb2287
p294
I1
sVb2286
p295
I1
sVb2285
p296
I1
sVb4383
p297
I1
sVb3231
p298
I1
sVb3722
p299
I1
sVb3721
p300
I1
sVb2288
p301
I1
sVb0895
p302
I1
sVb1530
p303
I1
sVb1552
p304
I1
sVb4270
p305
I1
sVb4010
p306
I1
sVb0033
p307
I1
sVb0973
p308
I1
sVb0745
p309
I1
sVb1101
p310
I1
sVb2284
p311
I1
sVb2239
p312
I1
sVb1109
p313
I1
sVb3852
p314
I1
sVb2235
p315
I1
sVb3123
p316
I1
sVb2231
p317
I1
sVb0972
p318
I1
sVb1335
p319
I1
sVb0405
p320
I1
sVb3222
p321
I1
sVb3223
p322
I1
sVb1532
p323
I1
sVb3221
p324
I1
sVb3224
p325
I1
sVb3225
p326
I1
sVb4069
p327
I1
sVb2579
p328
I1
sVb0032
p329
I1
sVb3165
p330
I1
sVb4009
p331
I1
sVb4067
p332
I1
sVb2277
p333
I1
sVb3796
p334
I1
sVb0971
p335
I1
sVb0116
p336
I1
sVb0744
p337
I1
sVb0536
p338
I1
sVb1032
p339
I1
sVb0743
p340
I1
sVb2588
p341
I1
sVb3969
p342
I1
ssVrbsR
p343
(dp344
Vb3752
p345
I1
sVb3753
p346
I1
sVb3750
p347
I1
sVb3751
p348
I1
sVb3749
p349
I1
sVb3748
p350
I1
ssVappY
p351
(dp352
Vb0977
p353
I1
sVb0976
p354
I1
sVb0975
p355
I1
sVb0974
p356
I1
sVb0973
p357
I1
sVb0972
p358
I1
sVb4592
p359
I1
sVb0980
p360
I1
sVb0978
p361
I1
sVb0979
p362
I1
ssVompR
p363
(dp364
Vb2215
p365
I1
sVb4439
p366
I1
sVb4445
p367
I1
sVb4444
p368
I1
sVb1634
p369
I1
sVb4411
p370
I1
sVb0435
p371
I1
sVb1480
p372
I1
sVb0929
p373
I1
sVb1037
p374
I1
sVb1039
p375
I1
sVb1038
p376
I1
sVb2344
p377
I1
sVb1892
p378
I1
sVb1891
p379
I1
sVb1040
p380
I1
ssVlacI
p381
(dp382
Vb0342
p383
I1
sVb0343
p384
I1
sVb0344
p385
I1
ssVrhaR
p386
(dp387
Vb3906
p388
I1
sVb3905
p389
I1
ssVdsdC
p390
(dp391
Vb2364
p392
I1
sVb2365
p393
I1
sVb2366
p394
I1
ssVgatR_1
p395
(dp396
Vb2092
p397
I1
sVb2093
p398
I1
sVb2091
p399
I1
sVb2096
p400
I1
sVb2094
p401
I1
sVb2095
p402
I1
ssVnagC
p403
(dp404
Vb3729
p405
I1
sVb3410
p406
I1
sVb2943
p407
I1
sVb2416
p408
I1
sVb2417
p409
I1
sVb2415
p410
I1
sVb1738
p411
I1
sVb4310
p412
I1
sVb4400
p413
I1
sVb0681
p414
I1
sVb1733
p415
I1
sVb0682
p416
I1
sVb1736
p417
I1
sVb1737
p418
I1
sVb1734
p419
I1
sVb1735
p420
I1
sVb0675
p421
I1
sVb0676
p422
I1
sVb0677
p423
I1
sVb3730
p424
I1
sVb0678
p425
I1
sVb0679
p426
I1
sVb4312
p427
I1
sVb3408
p428
I1
sVb1061
p429
I1
sVb4397
p430
I1
sVb1501
p431
I1
sVb4311
p432
I1
sVb3409
p433
I1
sVb4399
p434
I1
sVb4398
p435
I1
sVb1817
p436
I1
sVb1819
p437
I1
sVb1818
p438
I1
ssVgatR_2
p439
(dp440
Vb2092
p441
I1
sVb2093
p442
I1
sVb2091
p443
I1
sVb2096
p444
I1
sVb2094
p445
I1
sVb2095
p446
I1
ssVhyfR
p447
(dp448
Vb2490
p449
I1
sVb2482
p450
I1
sVb2485
p451
I1
sVb2484
p452
I1
sVb2487
p453
I1
sVb2486
p454
I1
sVb2492
p455
I1
sVb2483
p456
I1
sVb2491
p457
I1
sVb2481
p458
I1
sVb2489
p459
I1
sVb2488
p460
I1
ssVfeaR
p461
(dp462
Vb1385
p463
I1
ssVulaR
p464
(dp465
Vb4193
p466
I1
sVb4192
p467
I1
sVb4195
p468
I1
sVb4194
p469
I1
sVb4197
p470
I1
sVb4196
p471
I1
sVb4198
p472
I1
ssVuidR
p473
(dp474
Vb1615
p475
I1
sVb1617
p476
I1
sVb1616
p477
I1
sVb1618
p478
I1
ssVhcaR
p479
(dp480
Vb2539
p481
I1
sVb2538
p482
I1
sVb2537
p483
I1
sVb2540
p484
I1
sVb2541
p485
I1
sVb2542
p486
I1
ssVrpiR
p487
(dp488
Vb4089
p489
I1
sVb4088
p490
I1
sVb4087
p491
I1
sVb4086
p492
I1
sVb4085
p493
I1
sVb4090
p494
I1
ssVgadE
p495
(dp496
Vb2062
p497
I1
sVb2061
p498
I1
sVb2060
p499
I1
sVb0432
p500
I1
sVb4132
p501
I1
sVb4131
p502
I1
sVb0431
p503
I1
sVb1493
p504
I1
sVb1492
p505
I1
sVb4177
p506
I1
sVb0180
p507
I1
sVb0181
p508
I1
sVb3800
p509
I1
sVb3506
p510
I1
sVb1923
p511
I1
sVb0430
p512
I1
sVb4028
p513
I1
sVb1480
p514
I1
sVb1481
p515
I1
sVb1482
p516
I1
sVb0178
p517
I1
sVb3510
p518
I1
sVb1040
p519
I1
sVb3512
p520
I1
sVb3513
p521
I1
sVb0094
p522
I1
sVb0095
p523
I1
sVb0889
p524
I1
sVb3517
p525
I1
sVb0179
p526
I1
sVb1951
p527
I1
sVb0429
p528
I1
sVb0428
p529
I1
sVb2058
p530
I1
sVb2059
p531
I1
sVb3507
p532
I1
sVb4027
p533
I1
sVb4026
p534
I1
sVb3511
p535
I1
sVb4029
p536
I1
sVb1892
p537
I1
sVb1891
p538
I1
sVb1283
p539
I1
sVb3514
p540
I1
sVb4431
p541
I1
sVb3515
p542
I1
sVb3214
p543
I1
sVb3213
p544
I1
sVb3212
p545
I1
sVb1037
p546
I1
sVb3508
p547
I1
sVb1039
p548
I1
sVb1038
p549
I1
sVb3491
p550
I1
sVb3509
p551
I1
sVb2029
p552
I1
sVb3516
p553
I1
ssVlrp
p554
(dp555
Vb3458
p556
I1
sVb2923
p557
I1
sVb3455
p558
I1
sVb3454
p559
I1
sVb3457
p560
I1
sVb3456
p561
I1
sVb2591
p562
I1
sVb2590
p563
I1
sVb4669
p564
I1
sVb2215
p565
I1
sVb2211
p566
I1
sVb0889
p567
I1
sVb2669
p568
I1
sVb2913
p569
I1
sVb3617
p570
I1
sVb3616
p571
I1
sVb2663
p572
I1
sVb2662
p573
I1
sVb3855
p574
I1
sVb3854
p575
I1
sVb3851
p576
I1
sVb2589
p577
I1
sVb3853
p578
I1
sVb3852
p579
I1
sVb4376
p580
I1
sVb1814
p581
I1
sVb3214
p582
I1
sVb3213
p583
I1
sVb3212
p584
I1
sVb3509
p585
I1
sVb3508
p586
I1
sVb1246
p587
I1
sVb1247
p588
I1
sVb3277
p589
I1
sVb3276
p590
I1
sVb1243
p591
I1
sVb3273
p592
I1
sVb1241
p593
I1
sVb2903
p594
I1
sVb2904
p595
I1
sVb3278
p596
I1
sVb3969
p597
I1
sVb3968
p598
I1
sVb3756
p599
I1
sVb3757
p600
I1
sVb3510
p601
I1
sVb3758
p602
I1
sVb3759
p603
I1
sVb3418
p604
I1
sVb3572
p605
I1
sVb0077
p606
I1
sVb3970
p607
I1
sVb3971
p608
I1
sVb0078
p609
I1
sVb3769
p610
I1
sVb3766
p611
I1
sVb3275
p612
I1
sVb3274
p613
I1
sVb1244
p614
I1
sVb0205
p615
I1
sVb0204
p616
I1
sVb1245
p617
I1
sVb0201
p618
I1
sVb0203
p619
I1
sVb0202
p620
I1
sVb2163
p621
I1
sVb3272
p622
I1
sVb3460
p623
I1
sVb4187
p624
I1
sVb1482
p625
I1
sVb3770
p626
I1
sVb3771
p627
I1
sVb3772
p628
I1
sVb4129
p629
I1
sVb2905
p630
I1
sVb1189
p631
I1
sVb4007
p632
I1
sVb4009
p633
I1
sVb4008
p634
I1
sVb4439
p635
I1
sVb0907
p636
I1
sVb2659
p637
I1
sVb0908
p638
I1
sVb2661
p639
I1
sVb4320
p640
I1
sVb1190
p641
I1
sVb4010
p642
I1
sVb4319
p643
I1
sVb4318
p644
I1
sVb4317
p645
I1
sVb4316
p646
I1
sVb4315
p647
I1
sVb4314
p648
I1
sVb4313
p649
I1
sVb2660
p650
I1
sVb0929
p651
I1
sVb2588
p652
I1
ssVlsrR
p653
(dp654
Vb1516
p655
I1
sVb1517
p656
I1
sVb1514
p657
I1
sVb1515
p658
I1
sVb1512
p659
I1
sVb1513
p660
I1
sVb1511
p661
I1
sVb1518
p662
I1
sVb1519
p663
I1
ssVgadX
p664
(dp665
Vb4132
p666
I1
sVb4131
p667
I1
sVb1493
p668
I1
sVb1492
p669
I1
sVb2741
p670
I1
sVb0439
p671
I1
sVb0674
p672
I1
sVb1237
p673
I1
sVb3510
p674
I1
sVb3511
p675
I1
sVb3512
p676
I1
sVb3513
p677
I1
sVb3514
p678
I1
sVb0486
p679
I1
sVb3516
p680
I1
sVb3517
p681
I1
sVb1333
p682
I1
sVb4452
p683
I1
sVb3515
p684
I1
sVb0450
p685
I1
sVb0451
p686
I1
sVb0485
p687
I1
sVb3509
p688
I1
sVb3508
p689
I1
sVb3507
p690
I1
sVb3506
p691
I1
ssVmodE
p692
(dp693
Vb1246
p694
I1
sVb1247
p695
I1
sVb1244
p696
I1
sVb0783
p697
I1
sVb0784
p698
I1
sVb0785
p699
I1
sVb0781
p700
I1
sVb2724
p701
I1
sVb2725
p702
I1
sVb0764
p703
I1
sVb0765
p704
I1
sVb2720
p705
I1
sVb2721
p706
I1
sVb2722
p707
I1
sVb2723
p708
I1
sVb4381
p709
I1
sVb4382
p710
I1
sVb4383
p711
I1
sVb4384
p712
I1
sVb1243
p713
I1
sVb2199
p714
I1
sVb2198
p715
I1
sVb2197
p716
I1
sVb2196
p717
I1
sVb2195
p718
I1
sVb2194
p719
I1
sVb0782
p720
I1
sVb2717
p721
I1
sVb2719
p722
I1
sVb2718
p723
I1
sVb0763
p724
I1
sVb1245
p725
I1
sVb1221
p726
I1
sVb1222
p727
I1
sVb2208
p728
I1
sVb0894
p729
I1
sVb0895
p730
I1
sVb0896
p731
I1
sVb2203
p732
I1
sVb2202
p733
I1
sVb2201
p734
I1
sVb2200
p735
I1
sVb2207
p736
I1
sVb2206
p737
I1
sVb2205
p738
I1
sVb2204
p739
I1
ssVgcvA
p740
(dp741
Vb4443
p742
I1
sVb2808
p743
I1
sVb2903
p744
I1
sVb2904
p745
I1
sVb2905
p746
I1
ssVgadW
p747
(dp748
Vb1493
p749
I1
sVb1492
p750
I1
sVb4452
p751
I1
sVb3510
p752
I1
sVb3509
p753
I1
sVb3508
p754
I1
sVb3507
p755
I1
sVb3506
p756
I1
sVb3512
p757
I1
sVb3513
p758
I1
sVb3514
p759
I1
sVb3515
p760
I1
sVb3516
p761
I1
sVb3517
p762
I1
ssVasnC
p763
(dp764
Vb3741
p765
I1
sVb3743
p766
I1
sVb3742
p767
I1
sVb3744
p768
I1
ssVstpA
p769
(dp770
Vb3723
p771
I1
sVb3722
p772
I1
sVb3721
p773
I1
sVb2669
p774
I1
ssVpspF
p775
(dp776
Vb4050
p777
I1
sVb1303
p778
I1
sVb1307
p779
I1
sVb1306
p780
I1
sVb1305
p781
I1
sVb1304
p782
I1
sVb1308
p783
I1
ssVcrp
p784
(dp785
Vb3356
p786
I1
sVb3357
p787
I1
sVb2926
p788
I1
sVb2927
p789
I1
sVb2925
p790
I1
sVb3451
p791
I1
sVb3450
p792
I1
sVb3453
p793
I1
sVb3452
p794
I1
sVb0411
p795
I1
sVb3868
p796
I1
sVb1530
p797
I1
sVb1531
p798
I1
sVb1532
p799
I1
sVb0957
p800
I1
sVb1492
p801
I1
sVb4671
p802
I1
sVb1892
p803
I1
sVb1891
p804
I1
sVb4476
p805
I1
sVb4471
p806
I1
sVb1805
p807
I1
sVb1272
p808
I1
sVb1276
p809
I1
sVb3578
p810
I1
sVb3579
p811
I1
sVb3576
p812
I1
sVb3577
p813
I1
sVb3574
p814
I1
sVb3575
p815
I1
sVb3571
p816
I1
sVb3172
p817
I1
sVb3170
p818
I1
sVb3171
p819
I1
sVb1656
p820
I1
sVb3072
p821
I1
sVb3709
p822
I1
sVb3708
p823
I1
sVb3707
p824
I1
sVb4139
p825
I1
sVb4138
p826
I1
sVb0683
p827
I1
sVb1779
p828
I1
sVb3671
p829
I1
sVb3670
p830
I1
sVb0676
p831
I1
sVb0677
p832
I1
sVb0107
p833
I1
sVb0678
p834
I1
sVb0679
p835
I1
sVb3404
p836
I1
sVb2428
p837
I1
sVb0352
p838
I1
sVb0351
p839
I1
sVb0350
p840
I1
sVb0429
p841
I1
sVb0428
p842
I1
sVb4003
p843
I1
sVb4000
p844
I1
sVb4004
p845
I1
sVb2957
p846
I1
sVb4438
p847
I1
sVb1388
p848
I1
sVb0907
p849
I1
sVb0904
p850
I1
sVb0903
p851
I1
sVb2659
p852
I1
sVb0908
p853
I1
sVb3925
p854
I1
sVb3927
p855
I1
sVb3926
p856
I1
sVb3600
p857
I1
sVb0344
p858
I1
sVb2366
p859
I1
sVb4196
p860
I1
sVb4311
p861
I1
sVb4310
p862
I1
sVb0765
p863
I1
sVb2801
p864
I1
sVb3583
p865
I1
sVb3582
p866
I1
sVb3581
p867
I1
sVb3580
p868
I1
sVb3588
p869
I1
sVb4381
p870
I1
sVb4382
p871
I1
sVb4268
p872
I1
sVb4384
p873
I1
sVb0146
p874
I1
sVb1733
p875
I1
sVb4267
p876
I1
sVb1737
p877
I1
sVb1734
p878
I1
sVb1735
p879
I1
sVb0764
p880
I1
sVb3363
p881
I1
sVb3449
p882
I1
sVb3367
p883
I1
sVb3366
p884
I1
sVb3365
p885
I1
sVb3368
p886
I1
sVb2913
p887
I1
sVb2660
p888
I1
sVb2663
p889
I1
sVb2662
p890
I1
sVb1421
p891
I1
sVb0043
p892
I1
sVb0042
p893
I1
sVb0041
p894
I1
sVb0124
p895
I1
sVb0125
p896
I1
sVb3214
p897
I1
sVb3213
p898
I1
sVb3212
p899
I1
sVb3749
p900
I1
sVb3748
p901
I1
sVb2344
p902
I1
sVb2614
p903
I1
sVb4033
p904
I1
sVb2009
p905
I1
sVb2980
p906
I1
sVb0064
p907
I1
sVb0061
p908
I1
sVb0063
p909
I1
sVb0062
p910
I1
sVb3961
p911
I1
sVb0720
p912
I1
sVb2507
p913
I1
sVb3425
p914
I1
sVb2508
p915
I1
sVb2509
p916
I1
sVb2715
p917
I1
sVb2716
p918
I1
sVb2485
p919
I1
sVb2484
p920
I1
sVb2487
p921
I1
sVb2486
p922
I1
sVb2481
p923
I1
sVb2483
p924
I1
sVb2482
p925
I1
sVb2489
p926
I1
sVb2488
p927
I1
sVb0396
p928
I1
sVb2095
p929
I1
sVb0038
p930
I1
sVb1015
p931
I1
sVb3091
p932
I1
sVb3093
p933
I1
sVb3092
p934
I1
sVb0763
p935
I1
sVb4067
p936
I1
sVb1901
p937
I1
sVb1900
p938
I1
sVb4120
p939
I1
sVb4122
p940
I1
sVb4123
p941
I1
sVb4124
p942
I1
sVb0118
p943
I1
sVb0115
p944
I1
sVb0114
p945
I1
sVb0116
p946
I1
sVb0113
p947
I1
sVb3392
p948
I1
sVb3393
p949
I1
sVb0593
p950
I1
sVb0595
p951
I1
sVb0594
p952
I1
sVb3394
p953
I1
sVb0596
p954
I1
sVb0598
p955
I1
sVb3666
p956
I1
sVb0342
p957
I1
sVb0343
p958
I1
sVb3437
p959
I1
sVb2942
p960
I1
sVb0431
p961
I1
sVb0348
p962
I1
sVb0349
p963
I1
sVb1516
p964
I1
sVb1517
p965
I1
sVb1514
p966
I1
sVb1515
p967
I1
sVb1512
p968
I1
sVb1513
p969
I1
sVb1511
p970
I1
sVb4014
p971
I1
sVb4015
p972
I1
sVb4016
p973
I1
sVb3806
p974
I1
sVb1518
p975
I1
sVb1519
p976
I1
sVb0931
p977
I1
sVb2239
p978
I1
sVb2234
p979
I1
sVb2235
p980
I1
sVb2232
p981
I1
sVb2231
p982
I1
sVb0335
p983
I1
sVb0334
p984
I1
sVb3934
p985
I1
sVb0331
p986
I1
sVb0330
p987
I1
sVb0333
p988
I1
sVb0721
p989
I1
sVb0805
p990
I1
sVb1040
p991
I1
sVb4035
p992
I1
sVb3599
p993
I1
sVb4032
p994
I1
sVb4376
p995
I1
sVb3114
p996
I1
sVb3115
p997
I1
sVb3116
p998
I1
sVb3117
p999
I1
sVb0597
p1000
I1
sVb3113
p1001
I1
sVb3395
p1002
I1
sVb3118
p1003
I1
sVb1738
p1004
I1
sVb0722
p1005
I1
sVb0723
p1006
I1
sVb1389
p1007
I1
sVb4383
p1008
I1
sVb0726
p1009
I1
sVb0727
p1010
I1
sVb0724
p1011
I1
sVb4663
p1012
I1
sVb0728
p1013
I1
sVb0729
p1014
I1
sVb1387
p1015
I1
sVb1384
p1016
I1
sVb4213
p1017
I1
sVb2415
p1018
I1
sVb4119
p1019
I1
sVb4118
p1020
I1
sVb1415
p1021
I1
sVb4111
p1022
I1
sVb4289
p1023
I1
sVb4288
p1024
I1
sVb1736
p1025
I1
sVb4287
p1026
I1
sVb4266
p1027
I1
sVb3752
p1028
I1
sVb3753
p1029
I1
sVb3750
p1030
I1
sVb3751
p1031
I1
sVb4265
p1032
I1
sVb4264
p1033
I1
sVb2151
p1034
I1
sVb2150
p1035
I1
sVb2155
p1036
I1
sVb3870
p1037
I1
sVb2579
p1038
I1
sVb2706
p1039
I1
sVb2707
p1040
I1
sVb2704
p1041
I1
sVb2705
p1042
I1
sVb2702
p1043
I1
sVb2703
p1044
I1
sVb2708
p1045
I1
sVb3430
p1046
I1
sVb2492
p1047
I1
sVb2490
p1048
I1
sVb2491
p1049
I1
sVb0432
p1050
I1
sVb0430
p1051
I1
sVb0347
p1052
I1
sVb2535
p1053
I1
sVb2799
p1054
I1
sVb1002
p1055
I1
sVb4239
p1056
I1
sVb0759
p1057
I1
sVb0758
p1058
I1
sVb4233
p1059
I1
sVb0757
p1060
I1
sVb0756
p1061
I1
sVb1189
p1062
I1
sVb1182
p1063
I1
sVb0108
p1064
I1
sVb0106
p1065
I1
sVb3722
p1066
I1
sVb1594
p1067
I1
sVb1593
p1068
I1
sVb3236
p1069
I1
sVb4240
p1070
I1
sVb0583
p1071
I1
sVb0584
p1072
I1
sVb3428
p1073
I1
sVb3429
p1074
I1
sVb3831
p1075
I1
sVb3424
p1076
I1
sVb2661
p1077
I1
sVb3426
p1078
I1
sVb3423
p1079
I1
sVb4069
p1080
I1
sVb4068
p1081
I1
sVb1521
p1082
I1
sVb0039
p1083
I1
sVb0036
p1084
I1
sVb0037
p1085
I1
sVb0034
p1086
I1
sVb0035
p1087
I1
sVb0929
p1088
I1
sVb2741
p1089
I1
sVb3903
p1090
I1
sVb3902
p1091
I1
sVb3907
p1092
I1
sVb3906
p1093
I1
sVb3905
p1094
I1
sVb3904
p1095
I1
sVb3908
p1096
I1
sVb2841
p1097
I1
sVb4460
p1098
I1
sVb4194
p1099
I1
sVb2943
p1100
I1
sVb1817
p1101
I1
sVb1819
p1102
I1
sVb1818
p1103
I1
sVb1037
p1104
I1
sVb1039
p1105
I1
sVb1038
p1106
I1
sVb3569
p1107
I1
sVb3568
p1108
I1
sVb3565
p1109
I1
sVb3564
p1110
I1
sVb3567
p1111
I1
sVb3566
p1112
I1
sVb1394
p1113
I1
sVb1395
p1114
I1
sVb1396
p1115
I1
sVb1397
p1116
I1
sVb3165
p1117
I1
sVb1391
p1118
I1
sVb3167
p1119
I1
sVb3166
p1120
I1
sVb3169
p1121
I1
sVb3168
p1122
I1
sVb1398
p1123
I1
sVb1620
p1124
I1
sVb1621
p1125
I1
sVb1622
p1126
I1
sVb3049
p1127
I1
sVb3512
p1128
I1
sVb3513
p1129
I1
sVb3514
p1130
I1
sVb3516
p1131
I1
sVb3517
p1132
I1
sVb3260
p1133
I1
sVb3261
p1134
I1
sVb2393
p1135
I1
sVb1761
p1136
I1
sVb2365
p1137
I1
sVb3723
p1138
I1
sVb4290
p1139
I1
sVb4291
p1140
I1
sVb2243
p1141
I1
sVb2242
p1142
I1
sVb2241
p1143
I1
sVb2240
p1144
I1
sVb4193
p1145
I1
sVb4195
p1146
I1
sVb3601
p1147
I1
sVb4197
p1148
I1
sVb0145
p1149
I1
sVb4198
p1150
I1
sVb3415
p1151
I1
sVb3414
p1152
I1
sVb2803
p1153
I1
sVb2802
p1154
I1
sVb2805
p1155
I1
sVb2804
p1156
I1
sVb3413
p1157
I1
sVb2416
p1158
I1
sVb2417
p1159
I1
sVb2146
p1160
I1
sVb2147
p1161
I1
sVb3418
p1162
I1
sVb2143
p1163
I1
sVb4036
p1164
I1
sVb4037
p1165
I1
sVb4034
p1166
I1
sVb0040
p1167
I1
sVb3781
p1168
I1
sVb3869
p1169
I1
sVb4030
p1170
I1
sVb0044
p1171
I1
sVb3864
p1172
I1
sVb2964
p1173
I1
sVb2965
p1174
I1
sVb3721
p1175
I1
sVb2092
p1176
I1
sVb2093
p1177
I1
sVb2091
p1178
I1
sVb2096
p1179
I1
sVb2094
p1180
I1
sVb0675
p1181
I1
sVb3461
p1182
I1
sVb3672
p1183
I1
sVb0440
p1184
I1
sVb1493
p1185
I1
sVb2784
p1186
I1
sVb2782
p1187
I1
sVb2783
p1188
I1
sVb4322
p1189
I1
sVb4323
p1190
I1
sVb4321
p1191
I1
sVb1612
p1192
I1
sVb4324
p1193
I1
sVb1615
p1194
I1
sVb1617
p1195
I1
sVb1616
p1196
I1
sVb2429
p1197
I1
sVb1205
p1198
I1
sVb3405
p1199
I1
sVb1190
p1200
I1
sVb1101
p1201
I1
sVb2148
p1202
I1
sVb3081
p1203
I1
sVb3222
p1204
I1
sVb3223
p1205
I1
sVb3221
p1206
I1
sVb3224
p1207
I1
sVb3225
p1208
I1
sVb2149
p1209
I1
sVb1390
p1210
I1
sVb2800
p1211
I1
sVb3164
p1212
I1
sVb1392
p1213
I1
sVb1393
p1214
I1
sVb3528
p1215
I1
sVb3132
p1216
I1
sVb3133
p1217
I1
ssVcusR
p1218
(dp1219
Vb0573
p1220
I1
sVb0572
p1221
I1
sVb0571
p1222
I1
sVb0570
p1223
I1
sVb0575
p1224
I1
sVb0574
p1225
I1
ssVfnrS
p1226
(dp1227
Vb4054
p1228
I1
sVb1452
p1229
I1
sVb3829
p1230
I1
sVb1056
p1231
I1
sVb1479
p1232
I1
sVb1478
p1233
I1
sVb4663
p1234
I1
sVb1531
p1235
I1
sVb1839
p1236
I1
sVb2210
p1237
I1
sVb1809
p1238
I1
sVb3024
p1239
I1
sVb0887
p1240
I1
sVb0886
p1241
I1
sVb1840
p1242
I1
sVb1841
p1243
I1
sVb2153
p1244
I1
sVb2936
p1245
I1
sVb2133
p1246
I1
sVb0755
p1247
I1
sVb1216
p1248
I1
sVb2303
p1249
I1
sVb0850
p1250
I1
sVb0851
p1251
I1
sVb2325
p1252
I1
sVb1112
p1253
I1
sVb2209
p1254
I1
sVb0905
p1255
I1
sVb1654
p1256
I1
sVb1656
p1257
I1
sVb1538
p1258
I1
ssVtdcA
p1259
(dp1260
Vb3114
p1261
I1
sVb3115
p1262
I1
sVb3116
p1263
I1
sVb3117
p1264
I1
sVb3113
p1265
I1
sVb4471
p1266
I1
sVb3118
p1267
I1
ssVphoP
p1268
(dp1269
Vb3432
p1270
I1
sVb0557
p1271
I1
sVb3430
p1272
I1
sVb4006
p1273
I1
sVb3940
p1274
I1
sVb1499
p1275
I1
sVb3359
p1276
I1
sVb1641
p1277
I1
sVb4241
p1278
I1
sVb3431
p1279
I1
sVb4242
p1280
I1
sVb1608
p1281
I1
sVb1008
p1282
I1
sVb1009
p1283
I1
sVb0677
p1284
I1
sVb0154
p1285
I1
sVb1129
p1286
I1
sVb3207
p1287
I1
sVb3510
p1288
I1
sVb3511
p1289
I1
sVb0841
p1290
I1
sVb1826
p1291
I1
sVb3515
p1292
I1
sVb1006
p1293
I1
sVb1007
p1294
I1
sVb1160
p1295
I1
sVb3428
p1296
I1
sVb3429
p1297
I1
sVb1275
p1298
I1
sVb1609
p1299
I1
sVb0565
p1300
I1
sVb0463
p1301
I1
sVb0462
p1302
I1
sVb3227
p1303
I1
sVb3571
p1304
I1
sVb1501
p1305
I1
sVb1500
p1306
I1
sVb4005
p1307
I1
sVb3512
p1308
I1
sVb3939
p1309
I1
sVb3038
p1310
I1
sVb3037
p1311
I1
sVb3036
p1312
I1
sVb3035
p1313
I1
sVb4599
p1314
I1
sVb0622
p1315
I1
sVb3509
p1316
I1
sVb3508
p1317
I1
sVb1130
p1318
I1
sVb2344
p1319
I1
sVb1012
p1320
I1
sVb1011
p1321
I1
sVb1010
p1322
I1
ssVaraC
p1323
(dp1324
Vb4460
p1325
I1
sVb3565
p1326
I1
sVb3564
p1327
I1
sVb0396
p1328
I1
sVb0064
p1329
I1
sVb0061
p1330
I1
sVb0063
p1331
I1
sVb0062
p1332
I1
sVb1901
p1333
I1
sVb1900
p1334
I1
sVb2841
p1335
I1
ssS'cra'
p1336
(dp1337
Vb2926
p1338
I1
sVb2927
p1339
I1
sVb2925
p1340
I1
sVb3829
p1341
I1
sVb2597
p1342
I1
sVb2175
p1343
I1
sVb3367
p1344
I1
sVb2079
p1345
I1
sVb3365
p1346
I1
sVb3613
p1347
I1
sVb3612
p1348
I1
sVb2076
p1349
I1
sVb3368
p1350
I1
sVb3614
p1351
I1
sVb3919
p1352
I1
sVb0315
p1353
I1
sVb3916
p1354
I1
sVb1817
p1355
I1
sVb1819
p1356
I1
sVb1818
p1357
I1
sVb2078
p1358
I1
sVb2167
p1359
I1
sVb3378
p1360
I1
sVb3379
p1361
I1
sVb1241
p1362
I1
sVb2676
p1363
I1
sVb2674
p1364
I1
sVb2675
p1365
I1
sVb2673
p1366
I1
sVb2168
p1367
I1
sVb2169
p1368
I1
sVb2276
p1369
I1
sVb2277
p1370
I1
sVb2278
p1371
I1
sVb2279
p1372
I1
sVb1242
p1373
I1
sVb2779
p1374
I1
sVb2019
p1375
I1
sVb3477
p1376
I1
sVb3476
p1377
I1
sVb3479
p1378
I1
sVb3478
p1379
I1
sVb2388
p1380
I1
sVb0432
p1381
I1
sVb1778
p1382
I1
sVb1779
p1383
I1
sVb3381
p1384
I1
sVb3380
p1385
I1
sVb0430
p1386
I1
sVb0431
p1387
I1
sVb3376
p1388
I1
sVb4239
p1389
I1
sVb3377
p1390
I1
sVb0118
p1391
I1
sVb0115
p1392
I1
sVb0114
p1393
I1
sVb4232
p1394
I1
sVb0116
p1395
I1
sVb0429
p1396
I1
sVb0428
p1397
I1
sVb0113
p1398
I1
sVb2007
p1399
I1
sVb2026
p1400
I1
sVb2025
p1401
I1
sVb2024
p1402
I1
sVb2023
p1403
I1
sVb2022
p1404
I1
sVb2021
p1405
I1
sVb2020
p1406
I1
sVb1676
p1407
I1
sVb1675
p1408
I1
sVb2283
p1409
I1
sVb2282
p1410
I1
sVb2281
p1411
I1
sVb2280
p1412
I1
sVb2287
p1413
I1
sVb2286
p1414
I1
sVb2285
p1415
I1
sVb2284
p1416
I1
sVb2288
p1417
I1
sVb0934
p1418
I1
sVb4014
p1419
I1
sVb4015
p1420
I1
sVb4016
p1421
I1
sVb4240
p1422
I1
sVb3366
p1423
I1
sVb0933
p1424
I1
sVb2074
p1425
I1
sVb0937
p1426
I1
sVb0936
p1427
I1
sVb0935
p1428
I1
sVb2075
p1429
I1
sVb3480
p1430
I1
sVb3481
p1431
I1
sVb2077
p1432
I1
sVb1703
p1433
I1
sVb1702
p1434
I1
ssVnadR
p1435
(dp1436
Vb0931
p1437
I1
sVb0750
p1438
I1
sVb0751
p1439
I1
sVb2574
p1440
I1
ssVuhpA
p1441
(dp1442
Vb3666
p1443
I1
ssVallR
p1444
(dp1445
Vb0508
p1446
I1
sVb0509
p1447
I1
sVb0511
p1448
I1
sVb0510
p1449
I1
sVb0513
p1450
I1
sVb0512
p1451
I1
sVb0507
p1452
I1
sVb0504
p1453
I1
sVb0514
p1454
I1
sVb0505
p1455
I1
ssVmprA
p1456
(dp1457
Vb2686
p1458
I1
sVb0463
p1459
I1
sVb0462
p1460
I1
sVb2685
p1461
I1
sVb2684
p1462
I1
ssVtyrR
p1463
(dp1464
Vb3161
p1465
I1
sVb0112
p1466
I1
sVb4054
p1467
I1
sVb1323
p1468
I1
sVb0390
p1469
I1
sVb0754
p1470
I1
sVb2601
p1471
I1
sVb0048
p1472
I1
sVb0388
p1473
I1
sVb0389
p1474
I1
sVb1907
p1475
I1
sVb2600
p1476
I1
ssVnhaR
p1477
(dp1478
Vb1482
p1479
I1
sVb0019
p1480
I1
sVb1022
p1481
I1
sVb1023
p1482
I1
sVb1021
p1483
I1
sVb1024
p1484
I1
sVb0020
p1485
I1
ssVcueR
p1486
(dp1487
Vb0781
p1488
I1
sVb0782
p1489
I1
sVb0783
p1490
I1
sVb0784
p1491
I1
sVb0785
p1492
I1
sVb0123
p1493
I1
sVb0484
p1494
I1
ssVputA
p1495
(dp1496
Vb1015
p1497
I1
sVb1014
p1498
I1
ssVmelR
p1499
(dp1500
Vb4120
p1501
I1
sVb4118
p1502
I1
sVb4119
p1503
I1
ssVfruR
p1504
(dp1505
Vb0070
p1506
I1
sVb2167
p1507
I1
sVb2388
p1508
I1
sVb2926
p1509
I1
sVb2927
p1510
I1
sVb0430
p1511
I1
sVb0431
p1512
I1
sVb2416
p1513
I1
sVb2417
p1514
I1
sVb2415
p1515
I1
sVb2168
p1516
I1
sVb2169
p1517
I1
sVb2980
p1518
I1
sVb4014
p1519
I1
sVb4015
p1520
I1
sVb0432
p1521
I1
sVb1530
p1522
I1
sVb1531
p1523
I1
sVb1532
p1524
I1
sVb1779
p1525
I1
sVb0115
p1526
I1
sVb1276
p1527
I1
sVb3365
p1528
I1
sVb1241
p1529
I1
sVb0114
p1530
I1
sVb3613
p1531
I1
sVb0733
p1532
I1
sVb0734
p1533
I1
sVb0118
p1534
I1
sVb3599
p1535
I1
sVb0333
p1536
I1
sVb2779
p1537
I1
sVb0116
p1538
I1
sVb3367
p1539
I1
sVb3366
p1540
I1
sVb3956
p1541
I1
sVb2712
p1542
I1
sVb4577
p1543
I1
sVb3612
p1544
I1
sVb3368
p1545
I1
sVb0429
p1546
I1
sVb0428
p1547
I1
sVb0113
p1548
I1
sVb0112
p1549
I1
sVb0335
p1550
I1
sVb0334
p1551
I1
sVb1702
p1552
I1
sVb0331
p1553
I1
sVb3919
p1554
I1
sVb0315
p1555
I1
sVb2925
p1556
I1
sVb3916
p1557
I1
sVb3614
p1558
I1
sVb2097
p1559
I1
sVb1817
p1560
I1
sVb3403
p1561
I1
sVb1819
p1562
I1
sVb1818
p1563
I1
sVb1852
p1564
I1
sVb1851
p1565
I1
sVb1850
p1566
I1
sVb3600
p1567
I1
sVb3601
p1568
I1
sVb1676
p1569
I1
sVb4233
p1570
I1
sVb4016
p1571
I1
sVb1136
p1572
I1
ssVzntR
p1573
(dp1574
Vb3469
p1575
I1
ssVxapR
p1576
(dp1577
Vb2407
p1578
I1
sVb2406
p1579
I1
ssVflhC
p1580
(dp1581
Vb1079
p1582
I1
sVb2149
p1583
I1
sVb1075
p1584
I1
sVb1074
p1585
I1
sVb1077
p1586
I1
sVb1076
p1587
I1
sVb1071
p1588
I1
sVb2822
p1589
I1
sVb1073
p1590
I1
sVb1072
p1591
I1
sVb1880
p1592
I1
sVb2150
p1593
I1
sVb1879
p1594
I1
sVb4073
p1595
I1
sVb4072
p1596
I1
sVb2148
p1597
I1
sVb4070
p1598
I1
sVb4071
p1599
I1
sVb4076
p1600
I1
sVb0655
p1601
I1
sVb4074
p1602
I1
sVb4075
p1603
I1
sVb1926
p1604
I1
sVb1925
p1605
I1
sVb1924
p1606
I1
sVb1948
p1607
I1
sVb1922
p1608
I1
sVb1921
p1609
I1
sVb2198
p1610
I1
sVb2197
p1611
I1
sVb2196
p1612
I1
sVb2195
p1613
I1
sVb2194
p1614
I1
sVb1078
p1615
I1
sVb1945
p1616
I1
sVb1944
p1617
I1
sVb1947
p1618
I1
sVb1946
p1619
I1
sVb1941
p1620
I1
sVb1940
p1621
I1
sVb1943
p1622
I1
sVb2826
p1623
I1
sVb1949
p1624
I1
sVb2825
p1625
I1
sVb1080
p1626
I1
sVb1081
p1627
I1
sVb2824
p1628
I1
sVb2737
p1629
I1
sVb1194
p1630
I1
sVb2712
p1631
I1
sVb2823
p1632
I1
sVb0654
p1633
I1
sVb1942
p1634
I1
sVb0652
p1635
I1
sVb0653
p1636
I1
sVb1070
p1637
I1
sVb2713
p1638
I1
sVb3236
p1639
I1
sVb1878
p1640
I1
sVb2199
p1641
I1
sVb1937
p1642
I1
sVb1938
p1643
I1
sVb1939
p1644
I1
sVb1920
p1645
I1
sVb2243
p1646
I1
sVb2242
p1647
I1
sVb2241
p1648
I1
sVb1904
p1649
I1
sVb2208
p1650
I1
sVb3525
p1651
I1
sVb1950
p1652
I1
sVb2203
p1653
I1
sVb2202
p1654
I1
sVb2201
p1655
I1
sVb2200
p1656
I1
sVb2207
p1657
I1
sVb2206
p1658
I1
sVb2205
p1659
I1
sVb2204
p1660
I1
ssVrstA
p1661
(dp1662
Vb1226
p1663
I1
sVb1038
p1664
I1
sVb1597
p1665
I1
sVb1224
p1666
I1
sVb1225
p1667
I1
sVb1037
p1668
I1
sVb1227
p1669
I1
sVb1039
p1670
I1
sVb1040
p1671
I1
sVb0929
p1672
I1
ssVflhD
p1673
(dp1674
Vb1079
p1675
I1
sVb1078
p1676
I1
sVb1075
p1677
I1
sVb2826
p1678
I1
sVb1077
p1679
I1
sVb1076
p1680
I1
sVb2823
p1681
I1
sVb2822
p1682
I1
sVb1073
p1683
I1
sVb1072
p1684
I1
sVb4072
p1685
I1
sVb2150
p1686
I1
sVb4073
p1687
I1
sVb1880
p1688
I1
sVb2148
p1689
I1
sVb4070
p1690
I1
sVb4071
p1691
I1
sVb4076
p1692
I1
sVb1194
p1693
I1
sVb2149
p1694
I1
sVb1926
p1695
I1
sVb1925
p1696
I1
sVb1924
p1697
I1
sVb1948
p1698
I1
sVb1922
p1699
I1
sVb1921
p1700
I1
sVb2198
p1701
I1
sVb2197
p1702
I1
sVb2196
p1703
I1
sVb2195
p1704
I1
sVb2194
p1705
I1
sVb1945
p1706
I1
sVb1944
p1707
I1
sVb1947
p1708
I1
sVb1946
p1709
I1
sVb1941
p1710
I1
sVb4074
p1711
I1
sVb1943
p1712
I1
sVb1942
p1713
I1
sVb4075
p1714
I1
sVb1074
p1715
I1
sVb2825
p1716
I1
sVb1940
p1717
I1
sVb1080
p1718
I1
sVb1081
p1719
I1
sVb2824
p1720
I1
sVb2737
p1721
I1
sVb2207
p1722
I1
sVb2713
p1723
I1
sVb2712
p1724
I1
sVb1071
p1725
I1
sVb0654
p1726
I1
sVb0655
p1727
I1
sVb0652
p1728
I1
sVb0653
p1729
I1
sVb1070
p1730
I1
sVb2206
p1731
I1
sVb3236
p1732
I1
sVb2199
p1733
I1
sVb1937
p1734
I1
sVb1938
p1735
I1
sVb1949
p1736
I1
sVb1920
p1737
I1
sVb2243
p1738
I1
sVb2242
p1739
I1
sVb2241
p1740
I1
sVb1904
p1741
I1
sVb2208
p1742
I1
sVb3525
p1743
I1
sVb1950
p1744
I1
sVb1939
p1745
I1
sVb2203
p1746
I1
sVb2202
p1747
I1
sVb2201
p1748
I1
sVb2200
p1749
I1
sVb1879
p1750
I1
sVb1878
p1751
I1
sVb2205
p1752
I1
sVb2204
p1753
I1
ssVrtcR
p1754
(dp1755
Vb4475
p1756
I1
sVb3421
p1757
I1
ssVbirA
p1758
(dp1759
Vb0775
p1760
I1
sVb0774
p1761
I1
sVb0777
p1762
I1
sVb0776
p1763
I1
sVb0778
p1764
I1
ssVilvY
p1765
(dp1766
Vb3773
p1767
I1
sVb3774
p1768
I1
ssVcytR
p1769
(dp1770
Vb3363
p1771
I1
sVb3831
p1772
I1
sVb4381
p1773
I1
sVb2393
p1774
I1
sVb0411
p1775
I1
sVb2143
p1776
I1
sVb3461
p1777
I1
sVb3934
p1778
I1
sVb4383
p1779
I1
sVb4384
p1780
I1
sVb4382
p1781
I1
sVb2964
p1782
I1
ssVnanR
p1783
(dp1784
Vb3222
p1785
I1
sVb3223
p1786
I1
sVb3221
p1787
I1
sVb4312
p1788
I1
sVb4311
p1789
I1
sVb3225
p1790
I1
sVb3224
p1791
I1
sVb4310
p1792
I1
ssVmetR
p1793
(dp1794
Vb3828
p1795
I1
sVb3829
p1796
I1
sVb4019
p1797
I1
sVb2552
p1798
I1
sVb2551
p1799
I1
sVb4013
p1800
I1
ssVmqsR
p1801
(dp1802
Vb3021
p1803
I1
sVb3022
p1804
I1
sVb0880
p1805
I1
ssVaidB
p1806
(dp1807
Vb4187
p1808
I1
ssViscR
p1809
(dp1810
Vb3414
p1811
I1
sVb2531
p1812
I1
sVb2530
p1813
I1
sVb0977
p1814
I1
sVb0976
p1815
I1
sVb0975
p1816
I1
sVb0974
p1817
I1
sVb0973
p1818
I1
sVb0972
p1819
I1
sVb0156
p1820
I1
sVb1706
p1821
I1
sVb2528
p1822
I1
sVb2529
p1823
I1
sVb1684
p1824
I1
sVb1682
p1825
I1
sVb1683
p1826
I1
sVb1680
p1827
I1
sVb1681
p1828
I1
sVb2630
p1829
I1
sVb2208
p1830
I1
sVb1679
p1831
I1
sVb2203
p1832
I1
sVb2202
p1833
I1
sVb2207
p1834
I1
sVb2206
p1835
I1
sVb2205
p1836
I1
sVb2204
p1837
I1
ssVnrdR
p1838
(dp1839
Vb4238
p1840
I1
sVb2676
p1841
I1
sVb2674
p1842
I1
sVb2675
p1843
I1
sVb2673
p1844
I1
sVb4237
p1845
I1
sVb2234
p1846
I1
sVb2235
p1847
I1
ssVmqsA
p1848
(dp1849
Vb3021
p1850
I1
sVb3022
p1851
I1
sVb0880
p1852
I1
ssVmetJ
p1853
(dp1854
Vb2153
p1855
I1
sVb2152
p1856
I1
sVb2942
p1857
I1
sVb3941
p1858
I1
sVb3940
p1859
I1
sVb3828
p1860
I1
sVb3829
p1861
I1
sVb3008
p1862
I1
sVb0197
p1863
I1
sVb0605
p1864
I1
sVb0606
p1865
I1
sVb3939
p1866
I1
sVb0199
p1867
I1
sVb0198
p1868
I1
sVb4013
p1869
I1
ssVmurR
p1870
(dp1871
Vb2429
p1872
I1
sVb2428
p1873
I1
sVb2427
p1874
I1
ssVrcsA
p1875
(dp1876
Vb2062
p1877
I1
sVb2061
p1878
I1
sVb2060
p1879
I1
sVb4132
p1880
I1
sVb4131
p1881
I1
sVb1493
p1882
I1
sVb1492
p1883
I1
sVb3800
p1884
I1
sVb1892
p1885
I1
sVb1480
p1886
I1
sVb1481
p1887
I1
sVb1482
p1888
I1
sVb1040
p1889
I1
sVb0094
p1890
I1
sVb0095
p1891
I1
sVb3516
p1892
I1
sVb3517
p1893
I1
sVb2058
p1894
I1
sVb2059
p1895
I1
sVb1039
p1896
I1
sVb4027
p1897
I1
sVb4026
p1898
I1
sVb3506
p1899
I1
sVb4029
p1900
I1
sVb4028
p1901
I1
sVb1891
p1902
I1
sVb1283
p1903
I1
sVb4431
p1904
I1
sVb1037
p1905
I1
sVb1951
p1906
I1
sVb3507
p1907
I1
sVb1038
p1908
I1
sVb3491
p1909
I1
ssVrcsB
p1910
(dp1911
Vb2062
p1912
I1
sVb2061
p1913
I1
sVb2060
p1914
I1
sVb4132
p1915
I1
sVb4131
p1916
I1
sVb3723
p1917
I1
sVb1492
p1918
I1
sVb3721
p1919
I1
sVb3800
p1920
I1
sVb1892
p1921
I1
sVb1493
p1922
I1
sVb1040
p1923
I1
sVb1481
p1924
I1
sVb1482
p1925
I1
sVb3722
p1926
I1
sVb1480
p1927
I1
sVb0094
p1928
I1
sVb0095
p1929
I1
sVb3516
p1930
I1
sVb3517
p1931
I1
sVb2058
p1932
I1
sVb2059
p1933
I1
sVb3507
p1934
I1
sVb4027
p1935
I1
sVb4026
p1936
I1
sVb1038
p1937
I1
sVb4029
p1938
I1
sVb4028
p1939
I1
sVb1891
p1940
I1
sVb1283
p1941
I1
sVb4431
p1942
I1
sVb1037
p1943
I1
sVb1951
p1944
I1
sVb1039
p1945
I1
sVb3506
p1946
I1
sVb3491
p1947
I1
ssVbglJ
p1948
(dp1949
Vb3723
p1950
I1
sVb3722
p1951
I1
sVb3721
p1952
I1
ssVcynR
p1953
(dp1954
Vb0340
p1955
I1
sVb0341
p1956
I1
sVb0339
p1957
I1
sVb0338
p1958
I1
ssVcysB
p1959
(dp1960
Vb2414
p1961
I1
sVb0368
p1962
I1
sVb0934
p1963
I1
sVb1987
p1964
I1
sVb0366
p1965
I1
sVb0367
p1966
I1
sVb0365
p1967
I1
sVb0933
p1968
I1
sVb2423
p1969
I1
sVb0937
p1970
I1
sVb0936
p1971
I1
sVb0935
p1972
I1
sVb2422
p1973
I1
sVb1379
p1974
I1
sVb1275
p1975
I1
sVb2751
p1976
I1
sVb2750
p1977
I1
sVb2421
p1978
I1
sVb2752
p1979
I1
sVb2425
p1980
I1
sVb2424
p1981
I1
sVb2762
p1982
I1
sVb2763
p1983
I1
sVb2764
p1984
I1
ssVcaiF
p1985
(dp1986
Vb0041
p1987
I1
sVb0043
p1988
I1
sVb0042
p1989
I1
sVb0038
p1990
I1
sVb0039
p1991
I1
sVb0044
p1992
I1
sVb0040
p1993
I1
sVb0036
p1994
I1
sVb0037
p1995
I1
sVb0035
p1996
I1
ssVuxuR
p1997
(dp1998
Vb4322
p1999
I1
sVb4323
p2000
I1
sVb4321
p2001
I1
sVb4324
p2002
I1
sVb1615
p2003
I1
sVb1617
p2004
I1
sVb1616
p2005
I1
ssVcpxR
p2006
(dp2007
Vb2570
p2008
I1
sVb4484
p2009
I1
sVb3095
p2010
I1
sVb3096
p2011
I1
sVb1888
p2012
I1
sVb1889
p2013
I1
sVb3688
p2014
I1
sVb0180
p2015
I1
sVb0181
p2016
I1
sVb1535
p2017
I1
sVb4159
p2018
I1
sVb1887
p2019
I1
sVb2215
p2020
I1
sVb0970
p2021
I1
sVb3860
p2022
I1
sVb2580
p2023
I1
sVb3461
p2024
I1
sVb1040
p2025
I1
sVb1041
p2026
I1
sVb0441
p2027
I1
sVb0178
p2028
I1
sVb1846
p2029
I1
sVb1902
p2030
I1
sVb2470
p2031
I1
sVb3363
p2032
I1
sVb2078
p2033
I1
sVb2079
p2034
I1
sVb0461
p2035
I1
sVb2075
p2036
I1
sVb2076
p2037
I1
sVb2077
p2038
I1
sVb0754
p2039
I1
sVb3859
p2040
I1
sVb1039
p2041
I1
sVb1038
p2042
I1
sVb1043
p2043
I1
sVb4355
p2044
I1
sVb4160
p2045
I1
sVb3911
p2046
I1
sVb3912
p2047
I1
sVb1890
p2048
I1
sVb1743
p2049
I1
sVb0179
p2050
I1
sVb0460
p2051
I1
sVb2893
p2052
I1
sVb1042
p2053
I1
sVb2571
p2054
I1
sVb1113
p2055
I1
sVb2573
p2056
I1
sVb2572
p2057
I1
sVb0929
p2058
I1
sVb1037
p2059
I1
sVb2074
p2060
I1
sVb0161
p2061
I1
sVb3057
p2062
I1
sVb2617
p2063
I1
ssVdcuR
p2064
(dp2065
Vb4122
p2066
I1
sVb4123
p2067
I1
sVb4154
p2068
I1
sVb4151
p2069
I1
sVb4153
p2070
I1
sVb4152
p2071
I1
sVb3528
p2072
I1
ssVbolA
p2073
(dp2074
Vb0839
p2075
I1
sVb4150
p2076
I1
ssVmhpR
p2077
(dp2078
Vb0352
p2079
I1
sVb0351
p2080
I1
sVb0350
p2081
I1
sVb0348
p2082
I1
sVb0349
p2083
I1
sVb0347
p2084
I1
ssVyiaJ
p2085
(dp2086
Vb3578
p2087
I1
sVb3583
p2088
I1
sVb3582
p2089
I1
sVb3581
p2090
I1
sVb3579
p2091
I1
sVb3576
p2092
I1
sVb3577
p2093
I1
sVb3574
p2094
I1
sVb3575
p2095
I1
sVb3580
p2096
I1
ssVoxyR
p2097
(dp2098
Vb4322
p2099
I1
sVb4323
p2100
I1
sVb4321
p2101
I1
sVb3942
p2102
I1
sVb2000
p2103
I1
sVb0475
p2104
I1
sVb3961
p2105
I1
sVb4367
p2106
I1
sVb0683
p2107
I1
sVb3518
p2108
I1
sVb0849
p2109
I1
sVb2392
p2110
I1
sVb1684
p2111
I1
sVb1682
p2112
I1
sVb1683
p2113
I1
sVb1680
p2114
I1
sVb1681
p2115
I1
sVb0850
p2116
I1
sVb2582
p2117
I1
sVb4458
p2118
I1
sVb0851
p2119
I1
sVb0852
p2120
I1
sVb0853
p2121
I1
sVb0812
p2122
I1
sVb4637
p2123
I1
sVb0605
p2124
I1
sVb0604
p2125
I1
sVb1679
p2126
I1
sVb0606
p2127
I1
sVb3500
p2128
I1
ssVfnr
p2129
(dp2130
Vb1224
p2131
I1
sVb2920
p2132
I1
sVb1612
p2133
I1
sVb3318
p2134
I1
sVb4079
p2135
I1
sVb4072
p2136
I1
sVb4073
p2137
I1
sVb4070
p2138
I1
sVb4071
p2139
I1
sVb4076
p2140
I1
sVb4074
p2141
I1
sVb4075
p2142
I1
sVb3544
p2143
I1
sVb2199
p2144
I1
sVb2198
p2145
I1
sVb2197
p2146
I1
sVb2196
p2147
I1
sVb2195
p2148
I1
sVb2194
p2149
I1
sVb0887
p2150
I1
sVb0886
p2151
I1
sVb0733
p2152
I1
sVb3531
p2153
I1
sVb0734
p2154
I1
sVb2609
p2155
I1
sVb2608
p2156
I1
sVb1127
p2157
I1
sVb2606
p2158
I1
sVb0936
p2159
I1
sVb1256
p2160
I1
sVb3367
p2161
I1
sVb3366
p2162
I1
sVb3365
p2163
I1
sVb2918
p2164
I1
sVb2917
p2165
I1
sVb0934
p2166
I1
sVb1109
p2167
I1
sVb4139
p2168
I1
sVb0937
p2169
I1
sVb4138
p2170
I1
sVb3114
p2171
I1
sVb3115
p2172
I1
sVb3116
p2173
I1
sVb3117
p2174
I1
sVb2489
p2175
I1
sVb4471
p2176
I1
sVb3113
p2177
I1
sVb0814
p2178
I1
sVb1220
p2179
I1
sVb0723
p2180
I1
sVb1222
p2181
I1
sVb1223
p2182
I1
sVb0726
p2183
I1
sVb1225
p2184
I1
sVb1226
p2185
I1
sVb1227
p2186
I1
sVb0728
p2187
I1
sVb0729
p2188
I1
sVb0781
p2189
I1
sVb0782
p2190
I1
sVb0783
p2191
I1
sVb0784
p2192
I1
sVb0785
p2193
I1
sVb1716
p2194
I1
sVb1241
p2195
I1
sVb4209
p2196
I1
sVb3118
p2197
I1
sVb2903
p2198
I1
sVb2904
p2199
I1
sVb2905
p2200
I1
sVb2868
p2201
I1
sVb1415
p2202
I1
sVb1881
p2203
I1
sVb1882
p2204
I1
sVb1883
p2205
I1
sVb2867
p2206
I1
sVb1885
p2207
I1
sVb1886
p2208
I1
sVb1276
p2209
I1
sVb0722
p2210
I1
sVb3908
p2211
I1
sVb2276
p2212
I1
sVb2277
p2213
I1
sVb3321
p2214
I1
sVb1221
p2215
I1
sVb2278
p2216
I1
sVb2279
p2217
I1
sVb3518
p2218
I1
sVb3213
p2219
I1
sVb0721
p2220
I1
sVb2500
p2221
I1
sVb3214
p2222
I1
sVb2503
p2223
I1
sVb0894
p2224
I1
sVb4326
p2225
I1
sVb2499
p2226
I1
sVb3515
p2227
I1
sVb3516
p2228
I1
sVb0727
p2229
I1
sVb3266
p2230
I1
sVb3265
p2231
I1
sVb2711
p2232
I1
sVb2710
p2233
I1
sVb1160
p2234
I1
sVb3212
p2235
I1
sVb2485
p2236
I1
sVb2484
p2237
I1
sVb2487
p2238
I1
sVb2486
p2239
I1
sVb2481
p2240
I1
sVb2483
p2241
I1
sVb2482
p2242
I1
sVb0897
p2243
I1
sVb4511
p2244
I1
sVb2488
p2245
I1
sVb2367
p2246
I1
sVb4122
p2247
I1
sVb2243
p2248
I1
sVb2242
p2249
I1
sVb2241
p2250
I1
sVb2240
p2251
I1
sVb3477
p2252
I1
sVb3476
p2253
I1
sVb1671
p2254
I1
sVb0587
p2255
I1
sVb2579
p2256
I1
sVb3072
p2257
I1
sVb3071
p2258
I1
sVb0872
p2259
I1
sVb0873
p2260
I1
sVb3479
p2261
I1
sVb3478
p2262
I1
sVb3417
p2263
I1
sVb3319
p2264
I1
sVb4133
p2265
I1
sVb3410
p2266
I1
sVb1324
p2267
I1
sVb3543
p2268
I1
sVb3313
p2269
I1
sVb3541
p2270
I1
sVb3311
p2271
I1
sVb3316
p2272
I1
sVb3317
p2273
I1
sVb3314
p2274
I1
sVb3315
p2275
I1
sVb0043
p2276
I1
sVb2497
p2277
I1
sVb0041
p2278
I1
sVb2280
p2279
I1
sVb2492
p2280
I1
sVb2490
p2281
I1
sVb2491
p2282
I1
sVb3091
p2283
I1
sVb1475
p2284
I1
sVb1474
p2285
I1
sVb2498
p2286
I1
sVb2163
p2287
I1
sVb3532
p2288
I1
sVb0430
p2289
I1
sVb1476
p2290
I1
sVb0431
p2291
I1
sVb2239
p2292
I1
sVb0037
p2293
I1
sVb3230
p2294
I1
sVb3540
p2295
I1
sVb1904
p2296
I1
sVb3312
p2297
I1
sVb4238
p2298
I1
sVb2732
p2299
I1
sVb2731
p2300
I1
sVb2730
p2301
I1
sVb4124
p2302
I1
sVb4125
p2303
I1
sVb1211
p2304
I1
sVb1210
p2305
I1
sVb1587
p2306
I1
sVb1212
p2307
I1
sVb0429
p2308
I1
sVb0428
p2309
I1
sVb3408
p2310
I1
sVb4237
p2311
I1
sVb0044
p2312
I1
sVb2607
p2313
I1
sVb4401
p2314
I1
sVb1590
p2315
I1
sVb2727
p2316
I1
sVb2287
p2317
I1
sVb1182
p2318
I1
sVb2957
p2319
I1
sVb0896
p2320
I1
sVb2729
p2321
I1
sVb3542
p2322
I1
sVb1537
p2323
I1
sVb2728
p2324
I1
sVb0904
p2325
I1
sVb0602
p2326
I1
sVb0903
p2327
I1
sVb1674
p2328
I1
sVb1673
p2329
I1
sVb2552
p2330
I1
sVb3493
p2331
I1
sVb1670
p2332
I1
sVb2283
p2333
I1
sVb2282
p2334
I1
sVb2281
p2335
I1
sVb3728
p2336
I1
sVb0432
p2337
I1
sVb2286
p2338
I1
sVb2285
p2339
I1
sVb2284
p2340
I1
sVb3231
p2341
I1
sVb2368
p2342
I1
sVb2288
p2343
I1
sVb3727
p2344
I1
sVb3726
p2345
I1
sVb3725
p2346
I1
sVb1591
p2347
I1
sVb1715
p2348
I1
sVb4154
p2349
I1
sVb3480
p2350
I1
sVb4123
p2351
I1
sVb4151
p2352
I1
sVb4153
p2353
I1
sVb4152
p2354
I1
sVb3416
p2355
I1
sVb1589
p2356
I1
sVb0895
p2357
I1
sVb1588
p2358
I1
sVb4039
p2359
I1
sVb0586
p2360
I1
sVb2919
p2361
I1
sVb0827
p2362
I1
sVb0826
p2363
I1
sVb3092
p2364
I1
sVb1884
p2365
I1
sVb4040
p2366
I1
sVb0114
p2367
I1
sVb2866
p2368
I1
sVb0933
p2369
I1
sVb1669
p2370
I1
sVb0115
p2371
I1
sVb3724
p2372
I1
sVb0724
p2373
I1
sVb0935
p2374
I1
sVb3320
p2375
I1
sVb3125
p2376
I1
sVb3124
p2377
I1
sVb3127
p2378
I1
sVb3126
p2379
I1
sVb3123
p2380
I1
sVb3481
p2381
I1
sVb1334
p2382
I1
sVb3368
p2383
I1
sVb3830
p2384
I1
sVb2296
p2385
I1
sVb0042
p2386
I1
sVb0038
p2387
I1
sVb0039
p2388
I1
sVb3942
p2389
I1
sVb0113
p2390
I1
sVb1672
p2391
I1
sVb3409
p2392
I1
sVb0036
p2393
I1
sVb2201
p2394
I1
sVb0034
p2395
I1
sVb0035
p2396
I1
sVb1297
p2397
I1
sVb0116
p2398
I1
sVb0585
p2399
I1
sVb2208
p2400
I1
sVb0621
p2401
I1
sVb0040
p2402
I1
sVb2203
p2403
I1
sVb2202
p2404
I1
sVb3517
p2405
I1
sVb2200
p2406
I1
sVb2207
p2407
I1
sVb2206
p2408
I1
sVb2205
p2409
I1
sVb2204
p2410
I1
ssVargP
p2411
(dp2412
Vb2923
p2413
I1
sVb0031
p2414
I1
sVb3701
p2415
I1
sVb3700
p2416
I1
sVb3702
p2417
I1
sVb2234
p2418
I1
sVb2235
p2419
I1
ssVargR
p2420
(dp2421
Vb3237
p2422
I1
sVb3359
p2423
I1
sVb3960
p2424
I1
sVb3165
p2425
I1
sVb3164
p2426
I1
sVb3167
p2427
I1
sVb3166
p2428
I1
sVb3169
p2429
I1
sVb3168
p2430
I1
sVb0864
p2431
I1
sVb0861
p2432
I1
sVb0860
p2433
I1
sVb0863
p2434
I1
sVb0862
p2435
I1
sVb0273
p2436
I1
sVb3957
p2437
I1
sVb3958
p2438
I1
sVb3959
p2439
I1
sVb2818
p2440
I1
sVb1747
p2441
I1
sVb1746
p2442
I1
sVb1745
p2443
I1
sVb1744
p2444
I1
sVb0032
p2445
I1
sVb0033
p2446
I1
sVb4254
p2447
I1
sVb1748
p2448
I1
sVb3172
p2449
I1
sVb3170
p2450
I1
sVb3171
p2451
I1
sVb2306
p2452
I1
sVb2307
p2453
I1
sVb2308
p2454
I1
sVb2309
p2455
I1
sVb3214
p2456
I1
sVb3213
p2457
I1
sVb3212
p2458
I1
ssVallS
p2459
(dp2460
Vb0515
p2461
I1
sVb0517
p2462
I1
sVb0516
p2463
I1
ssVglrR
p2464
(dp2465
Vb4441
p2466
I1
ssVdpiA
p2467
(dp2468
Vb0564
p2469
I1
sVb3093
p2470
I1
sVb3236
p2471
I1
sVb0613
p2472
I1
sVb0616
p2473
I1
sVb0617
p2474
I1
sVb0614
p2475
I1
sVb0615
p2476
I1
sVb0618
p2477
I1
sVb0619
p2478
I1
sVb0620
p2479
I1
ssViclR
p2480
(dp2481
Vb4014
p2482
I1
sVb4015
p2483
I1
sVb4016
p2484
I1
sVb4018
p2485
I1
ssVglcC
p2486
(dp2487
Vb4467
p2488
I1
sVb4468
p2489
I1
sVb2980
p2490
I1
sVb2979
p2491
I1
sVb2975
p2492
I1
sVb2977
p2493
I1
sVb2976
p2494
I1
ssVacrR
p2495
(dp2496
Vb0463
p2497
I1
sVb0462
p2498
I1
sVb4439
p2499
I1
sVb0464
p2500
I1
ssVhdfR
p2501
(dp2502
Vb3214
p2503
I1
sVb3213
p2504
I1
sVb3212
p2505
I1
sVb1891
p2506
I1
sVb1892
p2507
I1
ssVlldR
p2508
(dp2509
Vb3604
p2510
I1
sVb3605
p2511
I1
sVb3603
p2512
I1
ssVmarA
p2513
(dp2514
Vb1452
p2515
I1
sVb3624
p2516
I1
sVb0578
p2517
I1
sVb1611
p2518
I1
sVb3924
p2519
I1
sVb4177
p2520
I1
sVb3908
p2521
I1
sVb1530
p2522
I1
sVb1531
p2523
I1
sVb1532
p2524
I1
sVb0447
p2525
I1
sVb0951
p2526
I1
sVb2237
p2527
I1
sVb2159
p2528
I1
sVb3625
p2529
I1
sVb1276
p2530
I1
sVb0463
p2531
I1
sVb0462
p2532
I1
sVb4396
p2533
I1
sVb0950
p2534
I1
sVb4439
p2535
I1
sVb0850
p2536
I1
sVb0851
p2537
I1
sVb0852
p2538
I1
sVb0853
p2539
I1
sVb3037
p2540
I1
sVb3036
p2541
I1
sVb3035
p2542
I1
sVb3038
p2543
I1
sVb1852
p2544
I1
sVb3509
p2545
I1
sVb3508
p2546
I1
sVb3507
p2547
I1
sVb3506
p2548
I1
sVb1014
p2549
I1
sVb3510
p2550
I1
sVb0871
p2551
I1
ssVbaeR
p2552
(dp2553
Vb2078
p2554
I1
sVb2079
p2555
I1
sVb2074
p2556
I1
sVb2075
p2557
I1
sVb2076
p2558
I1
sVb2077
p2559
I1
sVb1743
p2560
I1
sVb0897
p2561
I1
sVb2470
p2562
I1
ssVrutR
p2563
(dp2564
Vb3516
p2565
I1
sVb0592
p2566
I1
sVb1285
p2567
I1
sVb1650
p2568
I1
sVb3515
p2569
I1
sVb1008
p2570
I1
sVb1009
p2571
I1
sVb1006
p2572
I1
sVb1010
p2573
I1
sVb0032
p2574
I1
sVb0033
p2575
I1
sVb1649
p2576
I1
sVb1013
p2577
I1
sVb1012
p2578
I1
sVb1011
p2579
I1
sVb1007
p2580
I1
ssVzraR
p2581
(dp2582
Vb4003
p2583
I1
sVb4002
p2584
I1
sVb4004
p2585
I1
ssVdeoR
p2586
(dp2587
Vb0411
p2588
I1
sVb4381
p2589
I1
sVb4382
p2590
I1
sVb4383
p2591
I1
sVb4384
p2592
I1
sVb2964
p2593
I1
ssVlexA
p2594
(dp2595
Vb2009
p2596
I1
sVb4347
p2597
I1
sVb2698
p2598
I1
sVb2699
p2599
I1
sVb4059
p2600
I1
sVb0226
p2601
I1
sVb0225
p2602
I1
sVb4043
p2603
I1
sVb0685
p2604
I1
sVb3813
p2605
I1
sVb3065
p2606
I1
sVb3066
p2607
I1
sVb3067
p2608
I1
sVb4058
p2609
I1
sVb1184
p2610
I1
sVb0958
p2611
I1
sVb1848
p2612
I1
sVb1860
p2613
I1
sVb1861
p2614
I1
sVb0090
p2615
I1
sVb0091
p2616
I1
sVb0092
p2617
I1
sVb0093
p2618
I1
sVb3558
p2619
I1
sVb0095
p2620
I1
sVb0096
p2621
I1
sVb4044
p2622
I1
sVb0779
p2623
I1
sVb0890
p2624
I1
sVb0799
p2625
I1
sVb1061
p2626
I1
sVb1728
p2627
I1
sVb1741
p2628
I1
sVb4415
p2629
I1
sVb1913
p2630
I1
sVb0234
p2631
I1
sVb1183
p2632
I1
sVb0231
p2633
I1
sVb0232
p2634
I1
sVb0233
p2635
I1
sVb4613
p2636
I1
sVb0094
p2637
I1
sVb4618
p2638
I1
sVb0708
p2639
I1
sVb2616
p2640
I1
sVb0089
p2641
I1
sVb0088
p2642
I1
sVb0087
p2643
I1
sVb0086
p2644
I1
sVb0085
p2645
I1
sVb0084
p2646
I1
sVb0083
p2647
I1
sVb3645
p2648
I1
sVb1914
p2649
I1
sVb0060
p2650
I1
ssVmarR
p2651
(dp2652
Vb1530
p2653
I1
sVb1531
p2654
I1
sVb1532
p2655
I1
ssVrelB
p2656
(dp2657
Vb1564
p2658
I1
sVb1563
p2659
I1
sVb1562
p2660
I1
ssVlrhA
p2661
(dp2662
Vb2289
p2663
I1
sVb4313
p2664
I1
sVb1892
p2665
I1
sVb1891
p2666
I1
ssVrelE
p2667
(dp2668
Vb1564
p2669
I1
sVb1563
p2670
I1
sVb1562
p2671
I1
ssVcadC
p2672
(dp2673
Vb4133
p2674
I1
sVb4132
p2675
I1
sVb4131
p2676
I1
ssVfadR
p2677
(dp2678
Vb2323
p2679
I1
sVb1805
p2680
I1
sVb3081
p2681
I1
sVb3846
p2682
I1
sVb0221
p2683
I1
sVb3845
p2684
I1
sVb4018
p2685
I1
sVb3495
p2686
I1
sVb2344
p2687
I1
sVb2342
p2688
I1
sVb0954
p2689
I1
sVb2341
p2690
I1
ssVgntR
p2691
(dp2692
Vb4476
p2693
I1
sVb3414
p2694
I1
sVb3437
p2695
I1
sVb3413
p2696
I1
sVb1850
p2697
I1
sVb3415
p2698
I1
sVb1851
p2699
I1
sVb4268
p2700
I1
sVb4267
p2701
I1
sVb4266
p2702
I1
sVb4265
p2703
I1
sVb4264
p2704
I1
ssVmcbR
p2705
(dp2706
Vb1257
p2707
I1
sVb1259
p2708
I1
sVb1258
p2709
I1
ssVzur
p2710
(dp2711
Vb0296
p2712
I1
sVb1857
p2713
I1
sVb4506
p2714
I1
sVb1859
p2715
I1
sVb1858
p2716
I1
sVb1973
p2717
I1
ssVyqjI
p2718
(dp2719
Vb3071
p2720
I1
sVb3070
p2721
I1
ssVqseB
p2722
(dp2723
Vb1891
p2724
I1
sVb1892
p2725
I1
sVb3026
p2726
I1
sVb3025
p2727
I1
ssVmalT
p2728
(dp2729
Vb0403
p2730
I1
sVb3417
p2731
I1
sVb3416
p2732
I1
sVb3571
p2733
I1
sVb4036
p2734
I1
sVb4037
p2735
I1
sVb4034
p2736
I1
sVb4035
p2737
I1
sVb4032
p2738
I1
sVb4033
p2739
I1
ssVxylR
p2740
(dp2741
Vb3569
p2742
I1
sVb3568
p2743
I1
sVb3565
p2744
I1
sVb3564
p2745
I1
sVb3567
p2746
I1
sVb3566
p2747
I1
ssVsgrR
p2748
(dp2749
Vb4577
p2750
I1
sVb2379
p2751
I1
sVb0067
p2752
I1
sVb0066
p2753
I1
sVb0070
p2754
I1
sVb0069
p2755
I1
sVb0068
p2756
I1
ssVagaR
p2757
(dp2758
Vb3141
p2759
I1
sVb3140
p2760
I1
sVb3138
p2761
I1
sVb3139
p2762
I1
sVb3136
p2763
I1
sVb3137
p2764
I1
sVb3132
p2765
I1
sVb3133
p2766
I1
sVb3131
p2767
I1
ssVphoB
p2768
(dp2769
Vb3728
p2770
I1
sVb3451
p2771
I1
sVb1597
p2772
I1
sVb3453
p2773
I1
sVb3452
p2774
I1
sVb3727
p2775
I1
sVb3726
p2776
I1
sVb3725
p2777
I1
sVb3724
p2778
I1
sVb0400
p2779
I1
sVb4030
p2780
I1
sVb2987
p2781
I1
sVb0241
p2782
I1
sVb4094
p2783
I1
sVb1020
p2784
I1
sVb1850
p2785
I1
sVb3450
p2786
I1
sVb0399
p2787
I1
sVb3449
p2788
I1
sVb2916
p2789
I1
sVb0383
p2790
I1
sVb3615
p2791
I1
sVb4102
p2792
I1
sVb4100
p2793
I1
sVb4101
p2794
I1
sVb4106
p2795
I1
sVb4104
p2796
I1
sVb4105
p2797
I1
sVb1982
p2798
I1
sVb0384
p2799
I1
sVb4095
p2800
I1
sVb4096
p2801
I1
sVb4097
p2802
I1
sVb4092
p2803
I1
sVb4093
p2804
I1
sVb4098
p2805
I1
sVb4099
p2806
I1
ssVmalI
p2807
(dp2808
Vb1620
p2809
I1
sVb1621
p2810
I1
sVb1622
p2811
I1
ssVihfA
p2812
(dp2813
Vb1224
p2814
I1
sVb1307
p2815
I1
sVb1306
p2816
I1
sVb1305
p2817
I1
sVb3580
p2818
I1
sVb1308
p2819
I1
sVb0140
p2820
I1
sVb1739
p2821
I1
sVb4072
p2822
I1
sVb4073
p2823
I1
sVb4070
p2824
I1
sVb3908
p2825
I1
sVb4076
p2826
I1
sVb4669
p2827
I1
sVb3582
p2828
I1
sVb2215
p2829
I1
sVb4467
p2830
I1
sVb3581
p2831
I1
sVb0809
p2832
I1
sVb1304
p2833
I1
sVb2288
p2834
I1
sVb4468
p2835
I1
sVb1040
p2836
I1
sVb2720
p2837
I1
sVb1226
p2838
I1
sVb3367
p2839
I1
sVb3366
p2840
I1
sVb3365
p2841
I1
sVb4040
p2842
I1
sVb3368
p2843
I1
sVb2731
p2844
I1
sVb4475
p2845
I1
sVb4376
p2846
I1
sVb1892
p2847
I1
sVb1891
p2848
I1
sVb3114
p2849
I1
sVb3115
p2850
I1
sVb3116
p2851
I1
sVb3117
p2852
I1
sVb4471
p2853
I1
sVb0810
p2854
I1
sVb0811
p2855
I1
sVb0812
p2856
I1
sVb3113
p2857
I1
sVb3118
p2858
I1
sVb0124
p2859
I1
sVb0125
p2860
I1
sVb0720
p2861
I1
sVb1388
p2862
I1
sVb0894
p2863
I1
sVb0727
p2864
I1
sVb1037
p2865
I1
sVb1227
p2866
I1
sVb1039
p2867
I1
sVb1038
p2868
I1
sVb0728
p2869
I1
sVb0729
p2870
I1
sVb1387
p2871
I1
sVb4050
p2872
I1
sVb0726
p2873
I1
sVb1712
p2874
I1
sVb2163
p2875
I1
sVb3583
p2876
I1
sVb3686
p2877
I1
sVb4117
p2878
I1
sVb1394
p2879
I1
sVb1395
p2880
I1
sVb4441
p2881
I1
sVb1397
p2882
I1
sVb2276
p2883
I1
sVb2277
p2884
I1
sVb1392
p2885
I1
sVb1393
p2886
I1
sVb2278
p2887
I1
sVb2279
p2888
I1
sVb1398
p2889
I1
sVb1389
p2890
I1
sVb3214
p2891
I1
sVb4074
p2892
I1
sVb3213
p2893
I1
sVb4075
p2894
I1
sVb0896
p2895
I1
sVb0895
p2896
I1
sVb2717
p2897
I1
sVb2711
p2898
I1
sVb2710
p2899
I1
sVb3260
p2900
I1
sVb3261
p2901
I1
sVb3576
p2902
I1
sVb3577
p2903
I1
sVb3574
p2904
I1
sVb3575
p2905
I1
sVb2719
p2906
I1
sVb2718
p2907
I1
sVb3212
p2908
I1
sVb4027
p2909
I1
sVb4026
p2910
I1
sVb2979
p2911
I1
sVb3494
p2912
I1
sVb2975
p2913
I1
sVb2977
p2914
I1
sVb2976
p2915
I1
sVb4029
p2916
I1
sVb4028
p2917
I1
sVb1684
p2918
I1
sVb2240
p2919
I1
sVb4193
p2920
I1
sVb2763
p2921
I1
sVb2764
p2922
I1
sVb4194
p2923
I1
sVb4197
p2924
I1
sVb4196
p2925
I1
sVb3073
p2926
I1
sVb3766
p2927
I1
sVb1225
p2928
I1
sVb4198
p2929
I1
sVb3543
p2930
I1
sVb3542
p2931
I1
sVb3541
p2932
I1
sVb3540
p2933
I1
sVb4320
p2934
I1
sVb3544
p2935
I1
sVb0040
p2936
I1
sVb0033
p2937
I1
sVb2287
p2938
I1
sVb0048
p2939
I1
sVb2286
p2940
I1
sVb3578
p2941
I1
sVb3461
p2942
I1
sVb1480
p2943
I1
sVb0912
p2944
I1
sVb3770
p2945
I1
sVb3771
p2946
I1
sVb3772
p2947
I1
sVb2280
p2948
I1
sVb1907
p2949
I1
sVb3404
p2950
I1
sVb3405
p2951
I1
sVb1683
p2952
I1
sVb1211
p2953
I1
sVb1210
p2954
I1
sVb1212
p2955
I1
sVb2721
p2956
I1
sVb1391
p2957
I1
sVb1507
p2958
I1
sVb3725
p2959
I1
sVb4312
p2960
I1
sVb2723
p2961
I1
sVb1508
p2962
I1
sVb4439
p2963
I1
sVb4071
p2964
I1
sVb0904
p2965
I1
sVb0903
p2966
I1
sVb1679
p2967
I1
sVb3495
p2968
I1
sVb2224
p2969
I1
sVb3421
p2970
I1
sVb2221
p2971
I1
sVb2223
p2972
I1
sVb2222
p2973
I1
sVb2283
p2974
I1
sVb2282
p2975
I1
sVb2281
p2976
I1
sVb3728
p2977
I1
sVb2728
p2978
I1
sVb2729
p2979
I1
sVb2285
p2980
I1
sVb2284
p2981
I1
sVb2724
p2982
I1
sVb2725
p2983
I1
sVb2726
p2984
I1
sVb2727
p2985
I1
sVb3727
p2986
I1
sVb3726
p2987
I1
sVb2722
p2988
I1
sVb3724
p2989
I1
sVb2730
p2990
I1
sVb4014
p2991
I1
sVb4015
p2992
I1
sVb4016
p2993
I1
sVb3579
p2994
I1
sVb4039
p2995
I1
sVb2762
p2996
I1
sVb0933
p2997
I1
sVb4192
p2998
I1
sVb0937
p2999
I1
sVb0936
p3000
I1
sVb0935
p3001
I1
sVb0934
p3002
I1
sVb1109
p3003
I1
sVb4195
p3004
I1
sVb3161
p3005
I1
sVb0139
p3006
I1
sVb1396
p3007
I1
sVb3769
p3008
I1
sVb4319
p3009
I1
sVb4318
p3010
I1
sVb4317
p3011
I1
sVb4316
p3012
I1
sVb4315
p3013
I1
sVb4314
p3014
I1
sVb3227
p3015
I1
sVb4069
p3016
I1
sVb4068
p3017
I1
sVb0038
p3018
I1
sVb0039
p3019
I1
sVb1682
p3020
I1
sVb2239
p3021
I1
sVb1680
p3022
I1
sVb1681
p3023
I1
sVb0032
p3024
I1
sVb1390
p3025
I1
sVb0036
p3026
I1
sVb0037
p3027
I1
sVb4067
p3028
I1
sVb0035
p3029
I1
sVb1223
p3030
I1
sVb2435
p3031
I1
sVb2436
p3032
I1
sVb0929
p3033
I1
sVb1656
p3034
I1
ssVtreR
p3035
(dp3036
Vb4239
p3037
I1
sVb4240
p3038
I1
ssVmlrA
p3039
(dp3040
Vb4133
p3041
I1
sVb3186
p3042
I1
sVb3185
p3043
I1
sVb3190
p3044
I1
sVb1040
p3045
I1
sVb1037
p3046
I1
sVb1039
p3047
I1
sVb1038
p3048
I1
ssVfur
p3049
(dp3050
Vb2741
p3051
I1
sVb1732
p3052
I1
sVb3908
p3053
I1
sVb3410
p3054
I1
sVb0805
p3055
I1
sVb1547
p3056
I1
sVb1252
p3057
I1
sVb3441
p3058
I1
sVb1548
p3059
I1
sVb1892
p3060
I1
sVb1891
p3061
I1
sVb1546
p3062
I1
sVb0722
p3063
I1
sVb0723
p3064
I1
sVb0721
p3065
I1
sVb0726
p3066
I1
sVb0727
p3067
I1
sVb2106
p3068
I1
sVb0728
p3069
I1
sVb0729
p3070
I1
sVb1246
p3071
I1
sVb1247
p3072
I1
sVb1244
p3073
I1
sVb1245
p3074
I1
sVb1243
p3075
I1
sVb2676
p3076
I1
sVb2674
p3077
I1
sVb2675
p3078
I1
sVb2673
p3079
I1
sVb2671
p3080
I1
sVb4367
p3081
I1
sVb4289
p3082
I1
sVb4288
p3083
I1
sVb4287
p3084
I1
sVb0151
p3085
I1
sVb0150
p3086
I1
sVb0153
p3087
I1
sVb0152
p3088
I1
sVb2105
p3089
I1
sVb0724
p3090
I1
sVb2155
p3091
I1
sVb2392
p3092
I1
sVb4511
p3093
I1
sVb4292
p3094
I1
sVb4293
p3095
I1
sVb4290
p3096
I1
sVb4291
p3097
I1
sVb4451
p3098
I1
sVb1656
p3099
I1
sVb1658
p3100
I1
sVb3070
p3101
I1
sVb1973
p3102
I1
sVb3942
p3103
I1
sVb0683
p3104
I1
sVb1683
p3105
I1
sVb1905
p3106
I1
sVb4122
p3107
I1
sVb0429
p3108
I1
sVb0428
p3109
I1
sVb0755
p3110
I1
sVb3409
p3111
I1
sVb4567
p3112
I1
sVb0591
p3113
I1
sVb0590
p3114
I1
sVb0593
p3115
I1
sVb0592
p3116
I1
sVb0595
p3117
I1
sVb0594
p3118
I1
sVb0597
p3119
I1
sVb0596
p3120
I1
sVb1679
p3121
I1
sVb2552
p3122
I1
sVb0432
p3123
I1
sVb0430
p3124
I1
sVb0431
p3125
I1
sVb4019
p3126
I1
sVb0583
p3127
I1
sVb3006
p3128
I1
sVb0587
p3129
I1
sVb0584
p3130
I1
sVb3005
p3131
I1
sVb0588
p3132
I1
sVb0589
p3133
I1
sVb1102
p3134
I1
sVb3125
p3135
I1
sVb3124
p3136
I1
sVb3127
p3137
I1
sVb3126
p3138
I1
sVb3123
p3139
I1
sVb3335
p3140
I1
sVb1062
p3141
I1
sVb1684
p3142
I1
sVb1682
p3143
I1
sVb3408
p3144
I1
sVb1680
p3145
I1
sVb1681
p3146
I1
sVb0586
p3147
I1
sVb3938
p3148
I1
sVb0585
p3149
I1
sVb0929
p3150
I1
ssVada
p3151
(dp3152
Vb2068
p3153
I1
sVb4187
p3154
I1
sVb2212
p3155
I1
sVb2213
p3156
I1
ssVihfB
p3157
(dp3158
Vb1224
p3159
I1
sVb3583
p3160
I1
sVb3582
p3161
I1
sVb1305
p3162
I1
sVb1304
p3163
I1
sVb1308
p3164
I1
sVb0140
p3165
I1
sVb1739
p3166
I1
sVb4072
p3167
I1
sVb4073
p3168
I1
sVb4070
p3169
I1
sVb4071
p3170
I1
sVb4076
p3171
I1
sVb4074
p3172
I1
sVb4075
p3173
I1
sVb2215
p3174
I1
sVb4467
p3175
I1
sVb3581
p3176
I1
sVb0809
p3177
I1
sVb3580
p3178
I1
sVb4468
p3179
I1
sVb1040
p3180
I1
sVb2720
p3181
I1
sVb1226
p3182
I1
sVb3367
p3183
I1
sVb3366
p3184
I1
sVb3365
p3185
I1
sVb4040
p3186
I1
sVb3368
p3187
I1
sVb2731
p3188
I1
sVb4475
p3189
I1
sVb4376
p3190
I1
sVb1892
p3191
I1
sVb1891
p3192
I1
sVb3114
p3193
I1
sVb3115
p3194
I1
sVb3116
p3195
I1
sVb3117
p3196
I1
sVb4471
p3197
I1
sVb0810
p3198
I1
sVb0811
p3199
I1
sVb0812
p3200
I1
sVb3113
p3201
I1
sVb3118
p3202
I1
sVb0124
p3203
I1
sVb0125
p3204
I1
sVb1389
p3205
I1
sVb3214
p3206
I1
sVb0894
p3207
I1
sVb0727
p3208
I1
sVb1037
p3209
I1
sVb1227
p3210
I1
sVb1039
p3211
I1
sVb1038
p3212
I1
sVb0728
p3213
I1
sVb0729
p3214
I1
sVb1387
p3215
I1
sVb4050
p3216
I1
sVb0726
p3217
I1
sVb1712
p3218
I1
sVb2163
p3219
I1
sVb3686
p3220
I1
sVb4117
p3221
I1
sVb0895
p3222
I1
sVb1394
p3223
I1
sVb1395
p3224
I1
sVb4441
p3225
I1
sVb3908
p3226
I1
sVb2276
p3227
I1
sVb2277
p3228
I1
sVb1392
p3229
I1
sVb1393
p3230
I1
sVb2278
p3231
I1
sVb2279
p3232
I1
sVb1398
p3233
I1
sVb0720
p3234
I1
sVb1388
p3235
I1
sVb4669
p3236
I1
sVb3213
p3237
I1
sVb0896
p3238
I1
sVb3212
p3239
I1
sVb2717
p3240
I1
sVb4314
p3241
I1
sVb2711
p3242
I1
sVb2710
p3243
I1
sVb3260
p3244
I1
sVb3261
p3245
I1
sVb3576
p3246
I1
sVb3577
p3247
I1
sVb3574
p3248
I1
sVb3575
p3249
I1
sVb2719
p3250
I1
sVb2718
p3251
I1
sVb3421
p3252
I1
sVb4027
p3253
I1
sVb4026
p3254
I1
sVb2979
p3255
I1
sVb2224
p3256
I1
sVb2975
p3257
I1
sVb2977
p3258
I1
sVb2976
p3259
I1
sVb4029
p3260
I1
sVb4028
p3261
I1
sVb0038
p3262
I1
sVb2240
p3263
I1
sVb4193
p3264
I1
sVb2763
p3265
I1
sVb4195
p3266
I1
sVb4194
p3267
I1
sVb4197
p3268
I1
sVb4196
p3269
I1
sVb3073
p3270
I1
sVb3766
p3271
I1
sVb1225
p3272
I1
sVb1681
p3273
I1
sVb3543
p3274
I1
sVb3542
p3275
I1
sVb3541
p3276
I1
sVb3540
p3277
I1
sVb4320
p3278
I1
sVb3544
p3279
I1
sVb0040
p3280
I1
sVb1397
p3281
I1
sVb2287
p3282
I1
sVb0048
p3283
I1
sVb4039
p3284
I1
sVb3578
p3285
I1
sVb2239
p3286
I1
sVb3461
p3287
I1
sVb1390
p3288
I1
sVb1480
p3289
I1
sVb0912
p3290
I1
sVb3770
p3291
I1
sVb3771
p3292
I1
sVb3772
p3293
I1
sVb2280
p3294
I1
sVb1907
p3295
I1
sVb3404
p3296
I1
sVb2730
p3297
I1
sVb1211
p3298
I1
sVb1210
p3299
I1
sVb1212
p3300
I1
sVb2721
p3301
I1
sVb1391
p3302
I1
sVb1507
p3303
I1
sVb2722
p3304
I1
sVb2727
p3305
I1
sVb4312
p3306
I1
sVb2723
p3307
I1
sVb1508
p3308
I1
sVb4439
p3309
I1
sVb2729
p3310
I1
sVb0904
p3311
I1
sVb0903
p3312
I1
sVb1679
p3313
I1
sVb3495
p3314
I1
sVb3494
p3315
I1
sVb2221
p3316
I1
sVb2223
p3317
I1
sVb2222
p3318
I1
sVb2283
p3319
I1
sVb2282
p3320
I1
sVb2281
p3321
I1
sVb3728
p3322
I1
sVb2728
p3323
I1
sVb2286
p3324
I1
sVb2285
p3325
I1
sVb2284
p3326
I1
sVb2724
p3327
I1
sVb2725
p3328
I1
sVb2726
p3329
I1
sVb2288
p3330
I1
sVb3727
p3331
I1
sVb3726
p3332
I1
sVb3725
p3333
I1
sVb3724
p3334
I1
sVb3405
p3335
I1
sVb4014
p3336
I1
sVb4015
p3337
I1
sVb4016
p3338
I1
sVb3579
p3339
I1
sVb2762
p3340
I1
sVb0933
p3341
I1
sVb4192
p3342
I1
sVb0937
p3343
I1
sVb0936
p3344
I1
sVb0935
p3345
I1
sVb0934
p3346
I1
sVb1109
p3347
I1
sVb2764
p3348
I1
sVb3161
p3349
I1
sVb0139
p3350
I1
sVb1396
p3351
I1
sVb3769
p3352
I1
sVb4319
p3353
I1
sVb4318
p3354
I1
sVb4317
p3355
I1
sVb4316
p3356
I1
sVb4315
p3357
I1
sVb1656
p3358
I1
sVb3227
p3359
I1
sVb1307
p3360
I1
sVb4069
p3361
I1
sVb4068
p3362
I1
sVb1684
p3363
I1
sVb0039
p3364
I1
sVb1682
p3365
I1
sVb1683
p3366
I1
sVb1680
p3367
I1
sVb4198
p3368
I1
sVb0032
p3369
I1
sVb0033
p3370
I1
sVb0036
p3371
I1
sVb0037
p3372
I1
sVb4067
p3373
I1
sVb0035
p3374
I1
sVb1223
p3375
I1
sVb1306
p3376
I1
sVb2435
p3377
I1
sVb2436
p3378
I1
sVb0929
p3379
I1
ssVglpR
p3380
(dp3381
Vb3426
p3382
I1
sVb2243
p3383
I1
sVb2242
p3384
I1
sVb2241
p3385
I1
sVb2240
p3386
I1
sVb3925
p3387
I1
sVb3927
p3388
I1
sVb3926
p3389
I1
sVb2239
p3390
I1
ssVyefM
p3391
(dp3392
Vb4539
p3393
I1
sVb2017
p3394
I1
ssVdnaA
p3395
(dp3396
Vb3701
p3397
I1
sVb3700
p3398
I1
sVb3702
p3399
I1
sVb4670
p3400
I1
sVb3461
p3401
I1
sVb2507
p3402
I1
sVb1415
p3403
I1
sVb2234
p3404
I1
sVb2235
p3405
I1
sVb2508
p3406
I1
sVb3863
p3407
I1
ssValaS
p3408
(dp3409
Vb2697
p3410
I1
ssVyqhC
p3411
(dp3412
Vb3011
p3413
I1
ssVtdcR
p3414
(dp3415
Vb3114
p3416
I1
sVb3115
p3417
I1
sVb3116
p3418
I1
sVb3117
p3419
I1
sVb4471
p3420
I1
sVb3113
p3421
I1
sVb3118
p3422
I1
ssVatoC
p3423
(dp3424
Vb2224
p3425
I1
sVb2221
p3426
I1
sVb2223
p3427
I1
sVb2222
p3428
I1
ssVascG
p3429
(dp3430
Vb2715
p3431
I1
sVb2714
p3432
I1
sVb2716
p3433
I1
sVb0330
p3434
I1
sVb0473
p3435
I1
ssVcsgD
p3436
(dp3437
Vb1037
p3438
I1
sVb1042
p3439
I1
sVb0385
p3440
I1
sVb1040
p3441
I1
sVb1041
p3442
I1
sVb0382
p3443
I1
sVb1043
p3444
I1
sVb1039
p3445
I1
sVb1038
p3446
I1
sVb0237
p3447
I1
ssVyoeB
p3448
(dp3449
Vb4539
p3450
I1
sVb2017
p3451
I1
ssVhupA
p3452
(dp3453
Vb3161
p3454
I1
sVb0759
p3455
I1
sVb0758
p3456
I1
sVb0757
p3457
I1
sVb0756
p3458
I1
sVb0688
p3459
I1
sVb4439
p3460
I1
sVb0687
p3461
I1
sVb1907
p3462
I1
ssVpurR
p3463
(dp3464
Vb2903
p3465
I1
sVb2904
p3466
I1
sVb2905
p3467
I1
sVb4177
p3468
I1
sVb2507
p3469
I1
sVb2499
p3470
I1
sVb2311
p3471
I1
sVb2313
p3472
I1
sVb2312
p3473
I1
sVb0522
p3474
I1
sVb0523
p3475
I1
sVb2500
p3476
I1
sVb2508
p3477
I1
sVb2937
p3478
I1
sVb2938
p3479
I1
sVb1062
p3480
I1
sVb1207
p3481
I1
sVb0337
p3482
I1
sVb0336
p3483
I1
sVb4006
p3484
I1
sVb4005
p3485
I1
sVb1131
p3486
I1
sVb0032
p3487
I1
sVb0033
p3488
I1
sVb2551
p3489
I1
sVb2557
p3490
I1
sVb1658
p3491
I1
sVb1132
p3492
I1
sVb2553
p3493
I1
sVb2476
p3494
I1
sVb0945
p3495
I1
ssVhupB
p3496
(dp3497
Vb3161
p3498
I1
sVb0759
p3499
I1
sVb0758
p3500
I1
sVb0757
p3501
I1
sVb0756
p3502
I1
sVb0688
p3503
I1
sVb4439
p3504
I1
sVb0687
p3505
I1
sVb1907
p3506
I1
ssVrcnR
p3507
(dp3508
Vb2105
p3509
I1
sVb2106
p3510
I1
ssVexuR
p3511
(dp3512
Vb4322
p3513
I1
sVb4323
p3514
I1
sVb4324
p3515
I1
sVb3091
p3516
I1
sVb3093
p3517
I1
sVb3092
p3518
I1
sVb3094
p3519
I1
sVb1521
p3520
I1
ssVfabR
p3521
(dp3522
Vb2323
p3523
I1
sVb0954
p3524
I1
ssVpepA
p3525
(dp3526
Vb0032
p3527
I1
sVb0033
p3528
I1
sVb4260
p3529
I1
ssVpdhR
p3530
(dp3531
Vb4289
p3532
I1
sVb4288
p3533
I1
sVb0116
p3534
I1
sVb0432
p3535
I1
sVb0430
p3536
I1
sVb0431
p3537
I1
sVb0461
p3538
I1
sVb0114
p3539
I1
sVb4290
p3540
I1
sVb4291
p3541
I1
sVb0429
p3542
I1
sVb0428
p3543
I1
sVb0113
p3544
I1
sVb0115
p3545
I1
sVb4287
p3546
I1
sVb0628
p3547
I1
sVb1109
p3548
I1
sVb0460
p3549
I1
sVb2579
p3550
I1
sVb0154
p3551
I1
ssVnarP
p3552
(dp3553
Vb4209
p3554
I1
sVb3367
p3555
I1
sVb4079
p3556
I1
sVb4072
p3557
I1
sVb4073
p3558
I1
sVb4070
p3559
I1
sVb4071
p3560
I1
sVb4076
p3561
I1
sVb1474
p3562
I1
sVb4074
p3563
I1
sVb1476
p3564
I1
sVb0977
p3565
I1
sVb0976
p3566
I1
sVb0975
p3567
I1
sVb0974
p3568
I1
sVb0973
p3569
I1
sVb0972
p3570
I1
sVb2199
p3571
I1
sVb2198
p3572
I1
sVb2197
p3573
I1
sVb1475
p3574
I1
sVb2195
p3575
I1
sVb2194
p3576
I1
sVb1669
p3577
I1
sVb2710
p3578
I1
sVb0873
p3579
I1
sVb4075
p3580
I1
sVb2711
p3581
I1
sVb3366
p3582
I1
sVb3365
p3583
I1
sVb3368
p3584
I1
sVb1796
p3585
I1
sVb2207
p3586
I1
sVb1670
p3587
I1
sVb2200
p3588
I1
sVb1674
p3589
I1
sVb1673
p3590
I1
sVb2206
p3591
I1
sVb2208
p3592
I1
sVb1671
p3593
I1
sVb2196
p3594
I1
sVb2203
p3595
I1
sVb2202
p3596
I1
sVb2201
p3597
I1
sVb1797
p3598
I1
sVb0872
p3599
I1
sVb1672
p3600
I1
sVb2205
p3601
I1
sVb2204
p3602
I1
ssVcbl
p3603
(dp3604
Vb0933
p3605
I1
sVb0368
p3606
I1
sVb0937
p3607
I1
sVb0936
p3608
I1
sVb0935
p3609
I1
sVb0934
p3610
I1
sVb0366
p3611
I1
sVb0367
p3612
I1
sVb0365
p3613
I1
ssVnikR
p3614
(dp3615
Vb3477
p3616
I1
sVb3476
p3617
I1
sVb3479
p3618
I1
sVb3478
p3619
I1
sVb3480
p3620
I1
sVb3481
p3621
I1
ssVnarL
p3622
(dp3623
Vb4079
p3624
I1
sVb4072
p3625
I1
sVb4073
p3626
I1
sVb4070
p3627
I1
sVb4071
p3628
I1
sVb4076
p3629
I1
sVb4074
p3630
I1
sVb4075
p3631
I1
sVb2199
p3632
I1
sVb2198
p3633
I1
sVb2197
p3634
I1
sVb2196
p3635
I1
sVb2195
p3636
I1
sVb2194
p3637
I1
sVb0887
p3638
I1
sVb0886
p3639
I1
sVb1226
p3640
I1
sVb3367
p3641
I1
sVb3366
p3642
I1
sVb3365
p3643
I1
sVb4040
p3644
I1
sVb3368
p3645
I1
sVb2997
p3646
I1
sVb2996
p3647
I1
sVb2995
p3648
I1
sVb2994
p3649
I1
sVb2993
p3650
I1
sVb2992
p3651
I1
sVb2991
p3652
I1
sVb2990
p3653
I1
sVb1797
p3654
I1
sVb1223
p3655
I1
sVb0894
p3656
I1
sVb1225
p3657
I1
sVb0896
p3658
I1
sVb1227
p3659
I1
sVb1241
p3660
I1
sVb4209
p3661
I1
sVb0977
p3662
I1
sVb0976
p3663
I1
sVb0975
p3664
I1
sVb0974
p3665
I1
sVb0973
p3666
I1
sVb2277
p3667
I1
sVb2278
p3668
I1
sVb2279
p3669
I1
sVb1224
p3670
I1
sVb4039
p3671
I1
sVb0895
p3672
I1
sVb2711
p3673
I1
sVb2710
p3674
I1
sVb3477
p3675
I1
sVb3476
p3676
I1
sVb0872
p3677
I1
sVb0873
p3678
I1
sVb3479
p3679
I1
sVb3478
p3680
I1
sVb4139
p3681
I1
sVb4138
p3682
I1
sVb1475
p3683
I1
sVb1474
p3684
I1
sVb1476
p3685
I1
sVb0998
p3686
I1
sVb0997
p3687
I1
sVb0996
p3688
I1
sVb4122
p3689
I1
sVb4123
p3690
I1
sVb4124
p3691
I1
sVb1588
p3692
I1
sVb1587
p3693
I1
sVb0904
p3694
I1
sVb0903
p3695
I1
sVb1674
p3696
I1
sVb1673
p3697
I1
sVb1672
p3698
I1
sVb1671
p3699
I1
sVb1670
p3700
I1
sVb2283
p3701
I1
sVb2282
p3702
I1
sVb2281
p3703
I1
sVb2280
p3704
I1
sVb2287
p3705
I1
sVb2286
p3706
I1
sVb2285
p3707
I1
sVb2284
p3708
I1
sVb2288
p3709
I1
sVb1590
p3710
I1
sVb1591
p3711
I1
sVb4154
p3712
I1
sVb4151
p3713
I1
sVb4153
p3714
I1
sVb4152
p3715
I1
sVb1589
p3716
I1
sVb4125
p3717
I1
sVb0827
p3718
I1
sVb0826
p3719
I1
sVb1669
p3720
I1
sVb3480
p3721
I1
sVb3481
p3722
I1
sVb1335
p3723
I1
sVb2276
p3724
I1
sVb0034
p3725
I1
sVb0972
p3726
I1
sVb2208
p3727
I1
sVb1796
p3728
I1
sVb2203
p3729
I1
sVb2202
p3730
I1
sVb2201
p3731
I1
sVb2200
p3732
I1
sVb2207
p3733
I1
sVb2206
p3734
I1
sVb2205
p3735
I1
sVb2204
p3736
I1
ssVsoxR
p3737
(dp3738
Vb4063
p3739
I1
sVb4062
p3740
I1
sVb1611
p3741
I1
ssVsoxS
p3742
(dp3743
Vb3624
p3744
I1
sVb3625
p3745
I1
sVb1611
p3746
I1
sVb3924
p3747
I1
sVb0683
p3748
I1
sVb3908
p3749
I1
sVb1530
p3750
I1
sVb1531
p3751
I1
sVb1532
p3752
I1
sVb3038
p3753
I1
sVb0684
p3754
I1
sVb1101
p3755
I1
sVb0951
p3756
I1
sVb2237
p3757
I1
sVb2159
p3758
I1
sVb0578
p3759
I1
sVb1277
p3760
I1
sVb1276
p3761
I1
sVb0463
p3762
I1
sVb0462
p3763
I1
sVb4025
p3764
I1
sVb0950
p3765
I1
sVb4062
p3766
I1
sVb4439
p3767
I1
sVb0850
p3768
I1
sVb0851
p3769
I1
sVb0852
p3770
I1
sVb0853
p3771
I1
sVb3037
p3772
I1
sVb3036
p3773
I1
sVb3035
p3774
I1
sVb4637
p3775
I1
sVb2895
p3776
I1
sVb1852
p3777
I1
sVb0871
p3778
I1
sVb1973
p3779
I1
ssVcsiR
p3780
(dp3781
Vb2662
p3782
I1
sVb2661
p3783
I1
sVb2659
p3784
I1
sVb2663
p3785
I1
sVb2660
p3786
I1
ssVnac
p3787
(dp3788
Vb3956
p3789
I1
sVb2661
p3790
I1
sVb2393
p3791
I1
sVb2913
p3792
I1
sVb2663
p3793
I1
sVb2662
p3794
I1
sVb0337
p3795
I1
sVb3742
p3796
I1
sVb1761
p3797
I1
sVb4244
p3798
I1
sVb4245
p3799
I1
sVb1988
p3800
I1
sVb2957
p3801
I1
sVb0336
p3802
I1
sVb0722
p3803
I1
sVb0721
p3804
I1
sVb3741
p3805
I1
sVb0723
p3806
I1
sVb3743
p3807
I1
sVb3214
p3808
I1
sVb3213
p3809
I1
sVb3212
p3810
I1
sVb0724
p3811
I1
sVb0726
p3812
I1
sVb0727
p3813
I1
ssVgalR
p3814
(dp3815
Vb2151
p3816
I1
sVb0758
p3817
I1
sVb2148
p3818
I1
sVb2149
p3819
I1
sVb2943
p3820
I1
sVb0757
p3821
I1
sVb0756
p3822
I1
sVb2837
p3823
I1
sVb2150
p3824
I1
sVb0759
p3825
I1
ssVgalS
p3826
(dp3827
Vb2151
p3828
I1
sVb0758
p3829
I1
sVb2148
p3830
I1
sVb2149
p3831
I1
sVb2943
p3832
I1
sVb0757
p3833
I1
sVb0756
p3834
I1
sVb2837
p3835
I1
sVb2150
p3836
I1
sVb0759
p3837
I1
ssVglnG
p3838
(dp3839
Vb3271
p3840
I1
sVb3270
p3841
I1
sVb3868
p3842
I1
sVb3869
p3843
I1
sVb1987
p3844
I1
sVb1988
p3845
I1
sVb2310
p3846
I1
sVb0809
p3847
I1
sVb1009
p3848
I1
sVb1484
p3849
I1
sVb1008
p3850
I1
sVb1485
p3851
I1
sVb1486
p3852
I1
sVb1487
p3853
I1
sVb1483
p3854
I1
sVb1784
p3855
I1
sVb1488
p3856
I1
sVb1006
p3857
I1
sVb1007
p3858
I1
sVb3268
p3859
I1
sVb3269
p3860
I1
sVb3870
p3861
I1
sVb1747
p3862
I1
sVb1746
p3863
I1
sVb1745
p3864
I1
sVb1744
p3865
I1
sVb1748
p3866
I1
sVb0854
p3867
I1
sVb0855
p3868
I1
sVb0856
p3869
I1
sVb0857
p3870
I1
sVb2306
p3871
I1
sVb2307
p3872
I1
sVb0810
p3873
I1
sVb1783
p3874
I1
sVb2308
p3875
I1
sVb2309
p3876
I1
sVb0450
p3877
I1
sVb0451
p3878
I1
sVb0811
p3879
I1
sVb3073
p3880
I1
sVb1012
p3881
I1
sVb1011
p3882
I1
sVb1010
p3883
I1
ssVdgsA
p3884
(dp3885
Vb1817
p3886
I1
sVb2416
p3887
I1
sVb2417
p3888
I1
sVb1594
p3889
I1
sVb2415
p3890
I1
sVb3418
p3891
I1
sVb1819
p3892
I1
sVb1593
p3893
I1
sVb1101
p3894
I1
sVb1818
p3895
I1
ssVfucR
p3896
(dp3897
Vb2801
p3898
I1
sVb2800
p3899
I1
sVb2803
p3900
I1
sVb2802
p3901
I1
sVb2805
p3902
I1
sVb2804
p3903
I1
sVb2799
p3904
I1
ssVnemR
p3905
(dp3906
Vb1650
p3907
I1
sVb1649
p3908
I1
ssVleuO
p3909
(dp3910
Vb2759
p3911
I1
sVb2758
p3912
I1
sVb4133
p3913
I1
sVb3723
p3914
I1
sVb3722
p3915
I1
sVb3721
p3916
I1
sVb2755
p3917
I1
sVb1954
p3918
I1
sVb2757
p3919
I1
sVb2756
p3920
I1
sVb0076
p3921
I1
sVb0074
p3922
I1
sVb0075
p3923
I1
sVb0072
p3924
I1
sVb0073
p3925
I1
sVb0071
p3926
I1
sVb4366
p3927
I1
sVb2754
p3928
I1
sVb4365
p3929
I1
sVb2760
p3930
I1
ssVtrpR
p3931
(dp3932
Vb3161
p3933
I1
sVb1704
p3934
I1
sVb1264
p3935
I1
sVb1265
p3936
I1
sVb0390
p3937
I1
sVb1260
p3938
I1
sVb1261
p3939
I1
sVb1262
p3940
I1
sVb1263
p3941
I1
sVb4393
p3942
I1
sVb0388
p3943
I1
sVb0389
p3944
I1
ssVmngR
p3945
(dp3946
Vb0731
p3947
I1
sVb0730
p3948
I1
sVb0732
p3949
I1
ssVmntR
p3950
(dp3951
Vb2392
p3952
I1
ssVchbR
p3953
(dp3954
Vb1738
p3955
I1
sVb1733
p3956
I1
sVb1736
p3957
I1
sVb1737
p3958
I1
sVb1734
p3959
I1
sVb1735
p3960
I1
ssVcdaR
p3961
(dp3962
Vb2789
p3963
I1
sVb3128
p3964
I1
sVb2788
p3965
I1
sVb2787
p3966
I1
sVb3125
p3967
I1
sVb3124
p3968
I1
sVb3127
p3969
I1
sVb3126
p3970
I1
sVb0162
p3971
I1
sVb3123
p3972
I1
ssVmtlR
p3973
(dp3974
Vb3599
p3975
I1
sVb3600
p3976
I1
sVb3601
p3977
I1
ssVpaaX
p3978
(dp3979
Vb1394
p3980
I1
sVb1395
p3981
I1
sVb1396
p3982
I1
sVb1397
p3983
I1
sVb1390
p3984
I1
sVb1391
p3985
I1
sVb1392
p3986
I1
sVb1393
p3987
I1
sVb1398
p3988
I1
sVb1389
p3989
I1
sVb1388
p3990
I1
sVb1387
p3991
I1
ssVhipA
p3992
(dp3993
Vb1507
p3994
I1
sVb1508
p3995
I1
ssVkdgR
p3996
(dp3997
Vb1851
p3998
I1
sVb1850
p3999
I1
ssVidnR
p4000
(dp4001
Vb4476
p4002
I1
sVb3437
p4003
I1
sVb4268
p4004
I1
sVb4267
p4005
I1
sVb4266
p4006
I1
sVb4265
p4007
I1
sVb4264
p4008
I1
ssValpA
p4009
(dp4010
Vb2622
p4011
I1
ssVarsR
p4012
(dp4013
Vb3503
p4014
I1
sVb3502
p4015
I1
sVb3501
p4016
I1
ssVlysR
p4017
(dp4018
Vb2838
p4019
I1
sVb2839
p4020
I1
ssVkdpE
p4021
(dp4022
Vb0698
p4023
I1
sVb0696
p4024
I1
sVb0697
p4025
I1
sVb4513
p4026
I1
ssVnsrR
p4027
(dp4028
Vb1712
p4029
I1
sVb1713
p4030
I1
sVb1714
p4031
I1
sVb1715
p4032
I1
sVb1716
p4033
I1
sVb1717
p4034
I1
sVb4209
p4035
I1
sVb1719
p4036
I1
sVb2726
p4037
I1
sVb1681
p4038
I1
sVb2720
p4039
I1
sVb2717
p4040
I1
sVb2722
p4041
I1
sVb2143
p4042
I1
sVb3785
p4043
I1
sVb3784
p4044
I1
sVb0207
p4045
I1
sVb3786
p4046
I1
sVb4249
p4047
I1
sVb1430
p4048
I1
sVb4072
p4049
I1
sVb4073
p4050
I1
sVb4070
p4051
I1
sVb4071
p4052
I1
sVb4076
p4053
I1
sVb3788
p4054
I1
sVb4074
p4055
I1
sVb2729
p4056
I1
sVb1407
p4057
I1
sVb1922
p4058
I1
sVb1921
p4059
I1
sVb1920
p4060
I1
sVb3789
p4061
I1
sVb2724
p4062
I1
sVb2560
p4063
I1
sVb0873
p4064
I1
sVb2725
p4065
I1
sVb1109
p4066
I1
sVb4075
p4067
I1
sVb3791
p4068
I1
sVb0889
p4069
I1
sVb1654
p4070
I1
sVb2732
p4071
I1
sVb2731
p4072
I1
sVb2730
p4073
I1
sVb0353
p4074
I1
sVb1679
p4075
I1
sVb3364
p4076
I1
sVb0115
p4077
I1
sVb0114
p4078
I1
sVb2728
p4079
I1
sVb1384
p4080
I1
sVb2719
p4081
I1
sVb2718
p4082
I1
sVb3615
p4083
I1
sVb2721
p4084
I1
sVb1796
p4085
I1
sVb1684
p4086
I1
sVb3792
p4087
I1
sVb3793
p4088
I1
sVb4481
p4089
I1
sVb4417
p4090
I1
sVb1680
p4091
I1
sVb3787
p4092
I1
sVb2709
p4093
I1
sVb1429
p4094
I1
sVb2364
p4095
I1
sVb2723
p4096
I1
sVb3790
p4097
I1
sVb1718
p4098
I1
sVb3794
p4099
I1
sVb1797
p4100
I1
sVb2727
p4101
I1
sVb1655
p4102
I1
sVb1781
p4103
I1
sVb2559
p4104
I1
sVb1656
p4105
I1
sVb1682
p4106
I1
sVb2617
p4107
I1
sVb0872
p4108
I1
sVb2552
p4109
I1
sVb1385
p4110
I1
sVb1683
p4111
I1
ssVsdiA
p4112
(dp4113
Vb1707
p4114
I1
sVb0093
p4115
I1
sVb0094
p4116
I1
sVb3515
p4117
I1
sVb0095
p4118
I1
ssVfhlA
p4119
(dp4120
Vb2728
p4121
I1
sVb2729
p4122
I1
sVb2724
p4123
I1
sVb2725
p4124
I1
sVb2726
p4125
I1
sVb2727
p4126
I1
sVb2720
p4127
I1
sVb2721
p4128
I1
sVb2722
p4129
I1
sVb2723
p4130
I1
sVb4079
p4131
I1
sVb2492
p4132
I1
sVb2490
p4133
I1
sVb2491
p4134
I1
sVb2717
p4135
I1
sVb2730
p4136
I1
sVb2713
p4137
I1
sVb2712
p4138
I1
sVb2719
p4139
I1
sVb2718
p4140
I1
sVb2485
p4141
I1
sVb2484
p4142
I1
sVb2487
p4143
I1
sVb2486
p4144
I1
sVb2481
p4145
I1
sVb2483
p4146
I1
sVb2482
p4147
I1
sVb2489
p4148
I1
sVb2488
p4149
I1
sVb2731
p4150
I1
ssVhipB
p4151
(dp4152
Vb1507
p4153
I1
sVb1508
p4154
I1
ssVsrlR
p4155
(dp4156
Vb2706
p4157
I1
sVb2707
p4158
I1
sVb2704
p4159
I1
sVb2705
p4160
I1
sVb2702
p4161
I1
sVb2703
p4162
I1
sVb2708
p4163
I1
ssVyeiL
p4164
(dp4165
Vb2163
p4166
I1
ssVadiY
p4167
(dp4168
Vb3516
p4169
I1
sVb1493
p4170
I1
sVb1492
p4171
I1
sVb3214
p4172
I1
sVb3213
p4173
I1
sVb3212
p4174
I1
sVb4117
p4175
I1
sVb3517
p4176
I1
ssVhns
p4177
(dp4178
Vb2591
p4179
I1
sVb2590
p4180
I1
sVb2702
p4181
I1
sVb2703
p4182
I1
sVb2216
p4183
I1
sVb2217
p4184
I1
sVb1892
p4185
I1
sVb1237
p4186
I1
sVb0733
p4187
I1
sVb0734
p4188
I1
sVb0880
p4189
I1
sVb3756
p4190
I1
sVb1257
p4191
I1
sVb3367
p4192
I1
sVb3366
p4193
I1
sVb3365
p4194
I1
sVb0019
p4195
I1
sVb3368
p4196
I1
sVb1259
p4197
I1
sVb1258
p4198
I1
sVb2663
p4199
I1
sVb2662
p4200
I1
sVb2588
p4201
I1
sVb2589
p4202
I1
sVb3758
p4203
I1
sVb1891
p4204
I1
sVb3759
p4205
I1
sVb0812
p4206
I1
sVb3509
p4207
I1
sVb3508
p4208
I1
sVb3507
p4209
I1
sVb3506
p4210
I1
sVb3275
p4211
I1
sVb3274
p4212
I1
sVb3277
p4213
I1
sVb3276
p4214
I1
sVb3273
p4215
I1
sVb3272
p4216
I1
sVb2677
p4217
I1
sVb3278
p4218
I1
sVb3969
p4219
I1
sVb3968
p4220
I1
sVb0342
p4221
I1
sVb4366
p4222
I1
sVb4364
p4223
I1
sVb4365
p4224
I1
sVb4117
p4225
I1
sVb4116
p4226
I1
sVb1967
p4227
I1
sVb3757
p4228
I1
sVb3510
p4229
I1
sVb3511
p4230
I1
sVb3512
p4231
I1
sVb3513
p4232
I1
sVb3514
p4233
I1
sVb3515
p4234
I1
sVb3516
p4235
I1
sVb3517
p4236
I1
sVb3266
p4237
I1
sVb3265
p4238
I1
sVb0564
p4239
I1
sVb2755
p4240
I1
sVb1951
p4241
I1
sVb2754
p4242
I1
sVb0076
p4243
I1
sVb0077
p4244
I1
sVb3970
p4245
I1
sVb3971
p4246
I1
sVb4511
p4247
I1
sVb0078
p4248
I1
sVb3491
p4249
I1
sVb2369
p4250
I1
sVb2659
p4251
I1
sVb2760
p4252
I1
sVb1656
p4253
I1
sVb2706
p4254
I1
sVb2707
p4255
I1
sVb2704
p4256
I1
sVb2705
p4257
I1
sVb4133
p4258
I1
sVb4132
p4259
I1
sVb4131
p4260
I1
sVb1499
p4261
I1
sVb2708
p4262
I1
sVb0205
p4263
I1
sVb0204
p4264
I1
sVb0343
p4265
I1
sVb0201
p4266
I1
sVb2370
p4267
I1
sVb0203
p4268
I1
sVb0202
p4269
I1
sVb2678
p4270
I1
sVb2679
p4271
I1
sVb3723
p4272
I1
sVb2669
p4273
I1
sVb1482
p4274
I1
sVb3722
p4275
I1
sVb1905
p4276
I1
sVb0759
p4277
I1
sVb0758
p4278
I1
sVb2423
p4279
I1
sVb2422
p4280
I1
sVb2421
p4281
I1
sVb0757
p4282
I1
sVb0756
p4283
I1
sVb2425
p4284
I1
sVb2424
p4285
I1
sVb1501
p4286
I1
sVb1182
p4287
I1
sVb4439
p4288
I1
sVb2306
p4289
I1
sVb2307
p4290
I1
sVb2308
p4291
I1
sVb2309
p4292
I1
sVb3665
p4293
I1
sVb0161
p4294
I1
sVb2784
p4295
I1
sVb2782
p4296
I1
sVb2783
p4297
I1
sVb2661
p4298
I1
sVb4320
p4299
I1
sVb0435
p4300
I1
sVb0344
p4301
I1
sVb2535
p4302
I1
sVb1597
p4303
I1
sVb3721
p4304
I1
sVb4480
p4305
I1
sVb0020
p4306
I1
sVb2660
p4307
I1
sVb1923
p4308
I1
sVb1922
p4309
I1
sVb1921
p4310
I1
sVb1920
p4311
I1
sVb3322
p4312
I1
sVb3125
p4313
I1
sVb3124
p4314
I1
sVb3127
p4315
I1
sVb3126
p4316
I1
sVb3123
p4317
I1
sVb2759
p4318
I1
sVb2758
p4319
I1
sVb4319
p4320
I1
sVb4318
p4321
I1
sVb4317
p4322
I1
sVb4316
p4323
I1
sVb4315
p4324
I1
sVb4314
p4325
I1
sVb4313
p4326
I1
sVb4312
p4327
I1
sVb2757
p4328
I1
sVb2756
p4329
I1
sVb0924
p4330
I1
sVb0586
p4331
I1
sVb0034
p4332
I1
sVb0587
p4333
I1
sVb0585
p4334
I1
sVb3335
p4335
I1
sVb3338
p4336
I1
sVb0921
p4337
I1
sVb0922
p4338
I1
sVb0923
p4339
I1
ssVarcA
p4340
(dp4341
Vb2741
p4342
I1
sVb3907
p4343
I1
sVb3908
p4344
I1
sVb4467
p4345
I1
sVb4468
p4346
I1
sVb0887
p4347
I1
sVb0886
p4348
I1
sVb0733
p4349
I1
sVb0734
p4350
I1
sVb4040
p4351
I1
sVb0313
p4352
I1
sVb2996
p4353
I1
sVb2995
p4354
I1
sVb2994
p4355
I1
sVb2993
p4356
I1
sVb2992
p4357
I1
sVb2991
p4358
I1
sVb2990
p4359
I1
sVb0722
p4360
I1
sVb0723
p4361
I1
sVb0720
p4362
I1
sVb0721
p4363
I1
sVb0726
p4364
I1
sVb0727
p4365
I1
sVb0724
p4366
I1
sVb2344
p4367
I1
sVb0729
p4368
I1
sVb2342
p4369
I1
sVb1136
p4370
I1
sVb2341
p4371
I1
sVb1246
p4372
I1
sVb1247
p4373
I1
sVb1244
p4374
I1
sVb1245
p4375
I1
sVb3569
p4376
I1
sVb1243
p4377
I1
sVb4058
p4378
I1
sVb4059
p4379
I1
sVb3846
p4380
I1
sVb3845
p4381
I1
sVb1415
p4382
I1
sVb0977
p4383
I1
sVb0976
p4384
I1
sVb0975
p4385
I1
sVb0974
p4386
I1
sVb0973
p4387
I1
sVb2277
p4388
I1
sVb2278
p4389
I1
sVb2279
p4390
I1
sVb0979
p4391
I1
sVb0978
p4392
I1
sVb2296
p4393
I1
sVb3516
p4394
I1
sVb3517
p4395
I1
sVb1276
p4396
I1
sVb1160
p4397
I1
sVb2979
p4398
I1
sVb2975
p4399
I1
sVb2977
p4400
I1
sVb2976
p4401
I1
sVb0728
p4402
I1
sVb1805
p4403
I1
sVb4592
p4404
I1
sVb2243
p4405
I1
sVb2242
p4406
I1
sVb2241
p4407
I1
sVb3604
p4408
I1
sVb3605
p4409
I1
sVb3603
p4410
I1
sVb2579
p4411
I1
sVb1012
p4412
I1
sVb1011
p4413
I1
sVb1010
p4414
I1
sVb3318
p4415
I1
sVb3319
p4416
I1
sVb4132
p4417
I1
sVb4131
p4418
I1
sVb1324
p4419
I1
sVb3312
p4420
I1
sVb3313
p4421
I1
sVb3311
p4422
I1
sVb3316
p4423
I1
sVb3317
p4424
I1
sVb3314
p4425
I1
sVb3315
p4426
I1
sVb0040
p4427
I1
sVb2287
p4428
I1
sVb4039
p4429
I1
sVb2092
p4430
I1
sVb2093
p4431
I1
sVb2091
p4432
I1
sVb2096
p4433
I1
sVb0430
p4434
I1
sVb2094
p4435
I1
sVb2095
p4436
I1
sVb0431
p4437
I1
sVb1008
p4438
I1
sVb1009
p4439
I1
sVb1006
p4440
I1
sVb1007
p4441
I1
sVb4239
p4442
I1
sVb4122
p4443
I1
sVb0118
p4444
I1
sVb0115
p4445
I1
sVb1210
p4446
I1
sVb3081
p4447
I1
sVb0429
p4448
I1
sVb0428
p4449
I1
sVb1612
p4450
I1
sVb0980
p4451
I1
sVb0904
p4452
I1
sVb0602
p4453
I1
sVb0903
p4454
I1
sVb0314
p4455
I1
sVb2283
p4456
I1
sVb2282
p4457
I1
sVb2281
p4458
I1
sVb2280
p4459
I1
sVb0432
p4460
I1
sVb2286
p4461
I1
sVb2285
p4462
I1
sVb2284
p4463
I1
sVb4450
p4464
I1
sVb2288
p4465
I1
sVb1611
p4466
I1
sVb3236
p4467
I1
sVb0221
p4468
I1
sVb4014
p4469
I1
sVb4015
p4470
I1
sVb4016
p4471
I1
sVb4240
p4472
I1
sVb1297
p4473
I1
sVb0826
p4474
I1
sVb1299
p4475
I1
sVb1298
p4476
I1
sVb0114
p4477
I1
sVb1101
p4478
I1
sVb1211
p4479
I1
sVb3321
p4480
I1
sVb3320
p4481
I1
sVb1109
p4482
I1
sVb0972
p4483
I1
sVb1334
p4484
I1
sVb1212
p4485
I1
sVb3426
p4486
I1
sVb0038
p4487
I1
sVb0039
p4488
I1
sVb2276
p4489
I1
sVb1528
p4490
I1
sVb0036
p4491
I1
sVb0037
p4492
I1
sVb0035
p4493
I1
sVb2997
p4494
I1
sVb0827
p4495
I1
sVb0312
p4496
I1
sVb0116
p4497
I1
sVb0311
p4498
I1
sVb3528
p4499
I1
sVb0621
p4500
I1
ssVslyA
p4501
(dp4502
Vb1182
p4503
I1
ssVbetI
p4504
(dp4505
Vb0313
p4506
I1
sVb0312
p4507
I1
sVb0311
p4508
I1
sVb0314
p4509
I1
ssVcspA
p4510
(dp4511
Vb1237
p4512
I1
sVb2231
p4513
I1
ss.